
Hacklace.elf:     file format elf32-avr

Sections:
Idx Name          Size      VMA       LMA       File off  Algn
  0 .text         00000fa2  00000000  00000000  000000d4  2**1
                  CONTENTS, ALLOC, LOAD, READONLY, CODE
  1 .data         00000008  00800060  00000fa2  00001076  2**0
                  CONTENTS, ALLOC, LOAD, DATA
  2 .bss          000000d1  00800068  00800068  0000107e  2**0
                  ALLOC
  3 .eeprom       00000100  00810000  00810000  0000107e  2**0
                  CONTENTS, ALLOC, LOAD, READONLY, DATA
  4 .fuse         00000003  00820000  00820000  0000117e  2**0
                  CONTENTS, ALLOC, LOAD, DATA
  5 .stab         00000840  00000000  00000000  00001184  2**2
                  CONTENTS, READONLY, DEBUGGING
  6 .stabstr      0000014b  00000000  00000000  000019c4  2**0
                  CONTENTS, READONLY, DEBUGGING
  7 .debug_aranges 000000a8  00000000  00000000  00001b10  2**3
                  CONTENTS, READONLY, DEBUGGING
  8 .debug_info   00001283  00000000  00000000  00001bb8  2**0
                  CONTENTS, READONLY, DEBUGGING
  9 .debug_abbrev 00000501  00000000  00000000  00002e3b  2**0
                  CONTENTS, READONLY, DEBUGGING
 10 .debug_line   00000752  00000000  00000000  0000333c  2**0
                  CONTENTS, READONLY, DEBUGGING
 11 .debug_frame  00000248  00000000  00000000  00003a90  2**2
                  CONTENTS, READONLY, DEBUGGING
 12 .debug_str    00000396  00000000  00000000  00003cd8  2**0
                  CONTENTS, READONLY, DEBUGGING
 13 .debug_loc    00000a60  00000000  00000000  0000406e  2**0
                  CONTENTS, READONLY, DEBUGGING
 14 .debug_ranges 00000030  00000000  00000000  00004ace  2**0
                  CONTENTS, READONLY, DEBUGGING

Disassembly of section .text:

00000000 <__vectors>:
   0:	26 c4       	rjmp	.+2124   	; 0x84e <__ctors_end>
   2:	40 c4       	rjmp	.+2176   	; 0x884 <__bad_interrupt>
   4:	3f c4       	rjmp	.+2174   	; 0x884 <__bad_interrupt>
   6:	3e c4       	rjmp	.+2172   	; 0x884 <__bad_interrupt>
   8:	3d c4       	rjmp	.+2170   	; 0x884 <__bad_interrupt>
   a:	3c c4       	rjmp	.+2168   	; 0x884 <__bad_interrupt>
   c:	3b c4       	rjmp	.+2166   	; 0x884 <__bad_interrupt>
   e:	9b c6       	rjmp	.+3382   	; 0xd46 <__vector_7>
  10:	39 c4       	rjmp	.+2162   	; 0x884 <__bad_interrupt>
  12:	38 c4       	rjmp	.+2160   	; 0x884 <__bad_interrupt>
  14:	37 c4       	rjmp	.+2158   	; 0x884 <__bad_interrupt>
  16:	36 c4       	rjmp	.+2156   	; 0x884 <__bad_interrupt>
  18:	35 c4       	rjmp	.+2154   	; 0x884 <__bad_interrupt>
  1a:	10 c6       	rjmp	.+3104   	; 0xc3c <__vector_13>
  1c:	35 c6       	rjmp	.+3178   	; 0xc88 <__vector_14>
  1e:	32 c4       	rjmp	.+2148   	; 0x884 <__bad_interrupt>
  20:	31 c4       	rjmp	.+2146   	; 0x884 <__bad_interrupt>
  22:	30 c4       	rjmp	.+2144   	; 0x884 <__bad_interrupt>
  24:	2f c4       	rjmp	.+2142   	; 0x884 <__bad_interrupt>
  26:	2e c4       	rjmp	.+2140   	; 0x884 <__bad_interrupt>
  28:	84 c6       	rjmp	.+3336   	; 0xd32 <__vector_20>

0000002a <row_bit>:
  2a:	02 04 08 10 01 02 02                                .......

00000031 <row_port>:
  31:	01 01 02 01 00 00 02                                .......

00000038 <col_bit>:
  38:	10 04 08 40 20                                      ...@ 

0000003d <col_port>:
  3d:	02 02 01 01 01                                      .....

00000042 <font>:
  42:	00 00 00 80 80 5f 80 80 80 80 03 00 03 80 80 14     ....._..........
  52:	7f 14 7f 14 24 2a 7f 2a 12 23 13 08 64 62 36 49     ....$*.*.#..db6I
  62:	56 20 50 05 03 80 80 80 1c 22 41 80 80 41 22 1c     V P......"A..A".
  72:	80 80 22 14 6b 14 22 08 08 3e 08 08 50 30 80 80     ..".k."..>..P0..
  82:	80 08 08 08 08 80 60 60 80 80 80 60 10 08 04 03     ......``...`....
  92:	3e 41 41 3e 80 42 7f 40 80 80 62 51 49 46 80 22     >AA>.B.@..bQIF."
  a2:	41 49 36 80 18 14 12 7f 80 27 45 45 39 80 3c 4a     AI6......'EE9.<J
  b2:	49 31 80 01 71 0d 03 80 36 49 49 36 80 06 49 29     I1..q...6II6..I)
  c2:	1e 80 36 36 80 80 80 56 36 80 80 80 08 14 22 41     ..66...V6....."A
  d2:	80 14 14 14 14 80 41 22 14 08 80 02 51 09 06 80     ......A"....Q...
  e2:	32 49 79 41 3e 7e 09 09 7e 80 7f 49 49 36 80 3e     2IyA>~..~..II6.>
  f2:	41 41 22 80 7f 41 41 3e 80 7f 49 49 41 80 7f 09     AA"..AA>..IIA...
 102:	09 01 80 3e 49 49 3a 80 7f 08 08 7f 80 41 7f 41     ...>II:......A.A
 112:	80 80 20 40 40 3f 80 7f 08 14 63 80 7f 40 40 40     .. @@?....c..@@@
 122:	80 7f 02 0c 02 7f 7f 06 18 7f 80 3e 41 41 3e 80     ...........>AA>.
 132:	7f 09 09 06 80 3e 41 21 5e 80 7f 09 19 66 80 26     .....>A!^....f.&
 142:	49 49 32 80 01 01 7f 01 01 3f 40 40 3f 80 07 18     II2......?@@?...
 152:	60 18 07 3f 40 38 40 3f 63 14 08 14 63 03 04 78     `..?@8@?c...c..x
 162:	04 03 61 59 45 43 80 7f 41 41 80 80 03 04 08 10     ..aYEC..AA......
 172:	60 41 41 7f 80 80 02 01 02 80 80 40 40 40 40 80     `AA........@@@@.
 182:	03 04 80 80 80 20 54 54 78 80 7f 48 48 30 80 38     ..... TTx..HH0.8
 192:	44 44 28 80 38 44 44 7f 80 38 54 54 48 80 04 7e     DD(.8DD..8TTH..~
 1a2:	05 01 80 48 54 54 38 80 7f 08 08 70 80 7a 80 80     ...HTT8....p.z..
 1b2:	80 80 20 40 3a 80 80 7f 08 14 62 80 41 7f 40 80     .. @:.....b.A.@.
 1c2:	80 7c 04 78 04 78 7c 04 04 78 80 38 44 44 38 80     .|.x.x|..x.8DD8.
 1d2:	7c 24 24 18 80 18 24 24 7c 80 78 04 04 80 80 48     |$$...$$|.x....H
 1e2:	54 54 24 80 04 3f 44 44 80 3c 40 40 7c 80 0c 30     TT$..?DD.<@@|..0
 1f2:	40 30 8c 3c 40 30 40 3c 44 28 10 28 44 4c 50 50     @0.<@0@<D(.(DLPP
 202:	3c 80 64 54 4c 44 80 08 36 41 80 80 7f 80 80 80     <.dTLD..6A......
 212:	80 41 36 08 80 80 08 04 08 10 08 80 80 80 80 80     .A6.............
 222:	1c 2a 49 49 22 1f 04 7f 40 40 20 12 10 12 20 10     .*II"...@@ ... .
 232:	22 20 22 10 21 54 54 79 80 79 14 14 79 80 39 44     " ".!TTy.y..y.9D
 242:	44 39 80 39 44 44 39 80 3d 40 40 7d 80 3d 40 40     D9.9DD9.=@@}.=@@
 252:	3d 80 7e 25 25 1a 80 6c 1a 6f 1a 6c 7d 5a 1e 5a     =.~%%..l.o.l}Z.Z
 262:	7d 4e 7b 0f 7b 4e 7c 3a 7e 3a 7c 1c 76 2e 76 1c     }N{.{N|:~:|.v.v.
 272:	1e 34 7c 34 1e 0c 12 24 12 0c 08 1c 3e 7f 80 7f     .4|4...$....>...
 282:	3e 1c 08 80 30 3f 01 62 7e 30 3f 02 80 80 1e 3d     >...0?.b~0?....=
 292:	77 73 31 60 7e 7b 7e 60 20 5f 23 80 80 7e 7a 7a     ws1`~{~` _#..~zz
 2a2:	7f 80 03 45 79 45 03 10 28 24 28 10 08 14 2a 14     ...EyE..($(...*.
 2b2:	08 00 00 00 00 00 36 36 08 36 36 1e 14 3c 28 78     ......66.66..<(x
 2c2:	44 24 1d 24 44 42 24 1d 62 01 08 65 1c 22 41 46     D$.$DB$.b..e."AF
 2d2:	24 1d 24 4c 08 44 3d 44 08 4c 24 1d 24 46 01 62     $.$L.D=D.L$.$F.b
 2e2:	1d 62 01 42 24 1d 24 42 7c 46 57 46 7c 7f 2a 2a     .b.B$.$B|FWF|.**
 2f2:	7f 80 2a 7f 41 7f 2a 0a 00 55 00 0a 30 48 4d 33     ..*.A.*..U..0HM3
 302:	07 06 29 79 29 06 08 1c 2a 08 08 08 08 2a 1c 08     ..)y)...*....*..

00000312 <animation>:
 312:	ec 07 87 07 5e 07 4c 07 f1 06 e1 06 bd 06 a8 06     ....^.L.........
 322:	9d 06 f2 05 92 05 78 05 13 05 ea 04 99 04 5c 04     ......x.......\.
 332:	f7 03 c4 03 a5 03 86 03 5d 03 3e 03                 ........].>.

0000033e <lady>:
 33e:	40 40 58 64 68 64 68 70 48 44 4c 48 48 48 48 48     @@XdhdhpHDLHHHHH
 34e:	44 42 71 49 52 64 68 70 70 58 40 40 40 40 ff        DBqIRdhppX@@@@.

0000035d <clock>:
 35d:	1c 22 2e 2a 1c 1c 22 2a 2e 1c 1c 22 2a 2a 1c 1c     .".*.."*..."**..
 36d:	22 2a 3a 1c 1c 22 3a 2a 1c 1c 32 2a 2a 1c 1c 2a     "*:..":*..2**..*
 37d:	2a 2a 1c 1c 26 2a 2a 1c ff                          **..&**..

00000386 <tv_off>:
 386:	7f 7f 7f 7f 7f 1c 1c 1c 1c 1c 08 08 08 08 08 08     ................
 396:	08 08 08 08 00 08 08 08 00 00 00 08 00 00 ff        ...............

000003a5 <psycho>:
 3a5:	1c 3e 77 3e 1c 3e 77 63 77 3e 77 63 41 63 77 63     .>w>.>wcw>wcAcwc
 3b5:	41 08 41 63 41 08 1c 08 41 08 1c 3e 1c 08 ff        A.AcA...A..>...

000003c4 <droplet>:
 3c4:	40 40 41 40 40 40 40 43 40 40 40 40 45 40 40 40     @@A@@@@C@@@@E@@@
 3d4:	40 49 40 40 40 40 51 40 40 40 40 21 40 40 40 40     @I@@@@Q@@@@!@@@@
 3e4:	51 40 40 40 48 41 48 40 48 40 41 40 48 40 40 41     Q@@@HAH@H@A@H@@A
 3f4:	40 40 ff                                            @@.

000003f7 <explode>:
 3f7:	00 02 7d 00 00 00 01 7c 02 00 00 00 7a 00 00 00     ..}....|....z...
 407:	08 72 04 00 00 08 60 10 00 00 10 68 00 00 00 20     .r....`....h... 
 417:	40 10 00 00 00 20 00 00 00 00 00 00 00 00 00 00     @.... ..........
	...
 42f:	00 30 00 00 00 7c 54 38 00 79 3d 24 3d 79 7b 3f     .0...|T8.y=$=y{?
 43f:	16 3f 7b 7e 7c 18 7c 7e 7c 08 10 08 7c 70 08 10     .?{~|.|~|...|p..
 44f:	08 70 60 08 20 10 60 10 40 00 20 00 ff              .p`. .`.@. ..

0000045c <train>:
 45c:	3f 67 64 24 66 66 24 6f 69 69 3f 01 00 3c 64 66     ?gd$ff$oii?..<df
 46c:	27 67 66 3c 00 00 21 3f 69 69 2f 29 29 2f 69 69     'gf<..!?ii/))/ii
 47c:	3f 21 00 00 20 3e 62 62 23 23 23 62 62 3e 20 00     ?!.. >bb###bb> .
 48c:	00 3c 64 7c 24 3c 24 3c 24 7c 64 3c ff              .<d|$<$<$|d<.

00000499 <rocket>:
 499:	40 3c 43 3c 40 40 7c 43 7c 40 40 3c 43 3c 40 40     @<C<@@|C|@@<C<@@
 4a9:	7c 43 7c 40 40 3c 43 3c 40 40 7c 43 7c 40 20 5e     |C|@@<C<@@|C|@ ^
 4b9:	21 5e 20 10 6f 10 6f 10 08 77 08 77 08 04 7b 04     !^ .o.o..w.w..{.
 4c9:	7b 04 02 75 02 75 02 01 68 01 68 01 20 50 20 50     {..u.u..h.h. P P
 4d9:	20 40 10 20 00 40 20 00 40 00 40 40 00 40 00 00      @. .@ .@.@@.@..
 4e9:	ff                                                  .

000004ea <house>:
 4ea:	40 40 40 40 40 40 60 50 48 44 44 64 54 4c 44 44     @@@@@@`PHDDdTLDD
 4fa:	6c 54 6c 44 44 6c 54 6c 7c 44 6c 55 6e 7c 44 6e     lTlDDlTl|DlUn|Dn
 50a:	55 6e 7c 7c 6e 55 6e 7c ff                          Un||nUn|.

00000513 <pong>:
 513:	40 40 09 01 00 00 45 41 00 00 03 01 40 40 00 05     @@....EA....@@..
 523:	01 40 40 00 09 41 40 00 00 50 41 01 00 00 60 41     .@@..A@..PA...`A
 533:	01 00 00 40 51 01 00 00 00 41 51 00 00 00 00 41     ...@Q....AQ....A
 543:	49 00 00 00 41 41 08 00 00 40 45 01 00 00 05 41     I...AA...@E....A
 553:	40 00 03 01 40 40 01 05 00 40 40 00 09 01 40 40     @...@@...@@...@@
 563:	00 10 01 41 40 00 20 41 41 00 00 40 41 41 00 00     ...A@. AA..@AA..
 573:	40 41 01 00 ff                                      @A...

00000578 <hop>:
 578:	20 50 50 20 00 30 48 48 30 00 06 09 09 06 00 01      PP .0HH0.......
 588:	02 02 01 00 00 01 01 00 00 ff                       ..........

00000592 <glider>:
 592:	03 00 00 00 00 03 00 00 00 00 07 00 00 00 00 06     ................
 5a2:	02 00 00 00 05 06 00 00 00 0c 06 00 00 00 08 0e     ................
 5b2:	00 00 00 0a 0c 04 00 00 08 0a 0c 00 00 04 18 0c     ................
 5c2:	00 00 08 10 1c 00 00 00 14 18 08 00 00 10 14 18     ................
 5d2:	00 00 08 30 18 00 00 10 20 38 00 00 00 28 30 10     ...0.... 8...(0.
 5e2:	00 00 20 28 30 00 00 00 00 00 00 00 20 28 30 ff     .. (0....... (0.

000005f2 <tetris>:
 5f2:	00 00 07 00 00 00 00 0e 00 00 00 08 08 08 00 10     ................
 602:	10 10 00 00 20 20 20 00 00 40 43 43 00 00 40 46     ....   ..@CC..@F
 612:	46 00 00 40 40 4c 0c 00 40 40 40 18 18 40 40 40     F..@@L..@@@..@@@
 622:	60 60 00 00 00 20 20 40 40 40 60 60 00 01 07 44     ``...  @@@``...D
 632:	40 00 02 0e 48 40 00 18 08 4c 40 30 10 18 40 40     @...H@...L@0..@@
 642:	60 20 30 40 40 60 27 34 40 40 7e 30 30 40 40 7e     ` 0@@`'4@@~00@@~
 652:	31 33 40 40 7e 32 36 40 40 7e 30 36 44 40 7e 30     13@@~26@@~06D@~0
 662:	30 4c 48 7e 30 30 50 58 7e 30 30 60 70 5e 10 10     0LH~00PX~00`p^..
 672:	40 50 7e 30 30 60 70 7c 20 20 40 60 7c 21 27 44     @P~00`p|  @`|!'D
 682:	60 7c 22 2e 48 60 7c 38 28 4c 60 7c 3b 2b 4c 60     `|".H`|8(L`|;+L`
 692:	7c 3e 2e 4c 60 7c 3f 2f 4d 60 ff                    |>.L`|?/M`.

0000069d <checkers>:
 69d:	55 2a 55 2a 55 2a 55 2a 55 2a ff                    U*U*U*U*U*.

000006a8 <ecg>:
 6a8:	10 10 10 10 10 08 10 10 0f 70 10 10 08 08 10 10     .........p......
 6b8:	10 10 10 10 ff                                      .....

000006bd <wink>:
 6bd:	00 26 20 26 00 00 26 20 26 00 00 26 20 26 00 00     .& &..& &..& &..
 6cd:	26 20 24 00 00 26 20 26 00 00 26 20 26 00 10 26     & $..& &..& &..&
 6dd:	20 26 10 ff                                          &..

000006e1 <tunnel>:
 6e1:	00 00 1c 00 00 00 3e 22 3e 00 7f 41 41 41 7f ff     ......>">..AAA..

000006f1 <snow>:
 6f1:	01 00 00 00 00 02 00 01 00 00 04 00 02 00 00 08     ................
 701:	01 04 00 01 10 02 08 00 02 20 04 11 00 04 41 08     ......... ....A.
 711:	22 00 08 42 10 44 01 10 45 20 48 02 20 4a 40 50     "..B.D..E H. J@P
 721:	04 41 54 40 60 08 42 68 41 60 11 44 70 42 60 22     .AT@`.BhA`.DpB`"
 731:	48 70 44 60 45 50 70 48 60 4a 50 70 50 60 54 60     HpD`EPpH`JPpP`T`
 741:	70 60 60 68 60 70 60 60 70 60 ff                    p``h`p``p`.

0000074c <mountainrange>:
 74c:	08 44 28 10 08 04 02 04 08 50 30 10 08 04 04 02     .D(......P0.....
 75c:	01 ff                                               ..

0000075e <bounce>:
 75e:	01 00 00 00 00 02 02 01 00 00 06 09 09 06 00 00     ................
 76e:	30 48 48 30 00 20 50 50 20 00 30 48 48 30 00 00     0HH0. PP .0HH0..
 77e:	06 09 09 00 00 00 01 02 ff                          .........

00000787 <fire>:
 787:	78 5c 68 78 71 7c 38 74 7c 7a 78 50 62 62 78 7c     x\hxq|8t|zxPbbx|
 797:	60 61 70 68 7a 60 30 78 74 70 79 70 52 69 60 7c     `aphz`0xtpypRi`|
 7a7:	68 70 61 50 66 70 78 20 68 71 60 72 50 74 79 70     hpaPfpx hq`rPtyp
 7b7:	62 68 72 70 30 61 74 61 78 50 70 7a 74 31 40 68     bhrp0ataxPpzt1@h
 7c7:	44 10 68 70 34 60 28 4a 60 58 60 60 70 38 66 18     D.hp4`(J`X``p8f.
 7d7:	60 70 78 42 19 58 64 70 29 70 70 3a 78 54 70 70     `pxB.Xdp)pp:xTpp
 7e7:	51 78 6a 70 ff                                      Qxjp.

000007ec <arrow>:
 7ec:	14 2a 49 49 3e 00 1c 2a 49 3e 00 3e 49 3e 08 7f     .*II>..*I>.>I>..
 7fc:	2a 1c 08 08 22 1c 08 08 08 1c 00 08 08 08 00 08     *..."...........
 80c:	08 08 08 08 08 08 08 00 08 08 08 00 00 08 08 00     ................
 81c:	00 00 08 00 00 00 00 00 00 00 00 0c 00 00 00 0c     ................
 82c:	12 00 00 0c 12 24 00 0c 12 24 12 0c 12 24 12 0c     .....$...$...$..
 83c:	ff                                                  .

0000083d <spd_conv>:
 83d:	32 1e 12 0b 07 05 03 02                             2.......

00000845 <dly_conv>:
 845:	00 01 02 03 05 08 0d 15 00                          .........

0000084e <__ctors_end>:
 84e:	11 24       	eor	r1, r1
 850:	1f be       	out	0x3f, r1	; 63
 852:	cf e5       	ldi	r28, 0x5F	; 95
 854:	d1 e0       	ldi	r29, 0x01	; 1
 856:	de bf       	out	0x3e, r29	; 62
 858:	cd bf       	out	0x3d, r28	; 61

0000085a <__do_copy_data>:
 85a:	10 e0       	ldi	r17, 0x00	; 0
 85c:	a0 e6       	ldi	r26, 0x60	; 96
 85e:	b0 e0       	ldi	r27, 0x00	; 0
 860:	e2 ea       	ldi	r30, 0xA2	; 162
 862:	ff e0       	ldi	r31, 0x0F	; 15
 864:	02 c0       	rjmp	.+4      	; 0x86a <__do_copy_data+0x10>
 866:	05 90       	lpm	r0, Z+
 868:	0d 92       	st	X+, r0
 86a:	a8 36       	cpi	r26, 0x68	; 104
 86c:	b1 07       	cpc	r27, r17
 86e:	d9 f7       	brne	.-10     	; 0x866 <__do_copy_data+0xc>

00000870 <__do_clear_bss>:
 870:	11 e0       	ldi	r17, 0x01	; 1
 872:	a8 e6       	ldi	r26, 0x68	; 104
 874:	b0 e0       	ldi	r27, 0x00	; 0
 876:	01 c0       	rjmp	.+2      	; 0x87a <.do_clear_bss_start>

00000878 <.do_clear_bss_loop>:
 878:	1d 92       	st	X+, r1

0000087a <.do_clear_bss_start>:
 87a:	a9 33       	cpi	r26, 0x39	; 57
 87c:	b1 07       	cpc	r27, r17
 87e:	e1 f7       	brne	.-8      	; 0x878 <.do_clear_bss_loop>
 880:	0d d3       	rcall	.+1562   	; 0xe9c <main>
 882:	8d c3       	rjmp	.+1818   	; 0xf9e <_exit>

00000884 <__bad_interrupt>:
 884:	bd cb       	rjmp	.-2182   	; 0x0 <__vectors>

00000886 <dmDisplay>:
	Output:			none
	Description:	Switch to the next display column and display it on the led matrix.
					Call this function periodically, e. g. within an interrupt routine.
======================================================================*/
void dmDisplay(void)
{
 886:	cf 93       	push	r28
 888:	df 93       	push	r29
 88a:	cd b7       	in	r28, 0x3d	; 61
 88c:	de b7       	in	r29, 0x3e	; 62
 88e:	c3 50       	subi	r28, 0x03	; 3
 890:	cd bf       	out	0x3d, r28	; 61
	if (display.curr_col >= DISP_COLUMNS) {
 892:	80 91 34 01 	lds	r24, 0x0134
 896:	85 30       	cpi	r24, 0x05	; 5
 898:	18 f0       	brcs	.+6      	; 0x8a0 <dmDisplay+0x1a>
		display.curr_col = 0;
 89a:	10 92 34 01 	sts	0x0134, r1
 89e:	03 c0       	rjmp	.+6      	; 0x8a6 <dmDisplay+0x20>
	}
	else {
		display.curr_col++;
 8a0:	8f 5f       	subi	r24, 0xFF	; 255
 8a2:	80 93 34 01 	sts	0x0134, r24
	}
	dmSetOutputs(display.curr_col, display.memory[display.base + display.curr_col]);
 8a6:	20 91 34 01 	lds	r18, 0x0134
 8aa:	e0 91 33 01 	lds	r30, 0x0133
 8ae:	f0 e0       	ldi	r31, 0x00	; 0
 8b0:	e5 59       	subi	r30, 0x95	; 149
 8b2:	ff 4f       	sbci	r31, 0xFF	; 255
 8b4:	e2 0f       	add	r30, r18
 8b6:	f1 1d       	adc	r31, r1
 8b8:	30 81       	ld	r19, Z
inline void dmSetOutputs(uint8_t col, uint8_t pattern)
{
	uint8_t i;
	uint8_t p[3];

	p[0] = 0;  p[1] = 0;  p[2] = 0;
 8ba:	19 82       	std	Y+1, r1	; 0x01
 8bc:	1a 82       	std	Y+2, r1	; 0x02
 8be:	1b 82       	std	Y+3, r1	; 0x03
 8c0:	80 e0       	ldi	r24, 0x00	; 0
 8c2:	90 e0       	ldi	r25, 0x00	; 0
	for (i = 0; i < DISP_ROWS; i++) {
		if (BIT_IS_ON) {
 8c4:	30 ff       	sbrs	r19, 0
 8c6:	11 c0       	rjmp	.+34     	; 0x8ea <dmDisplay+0x64>
			p[ pgm_read_byte(&row_port[i]) ] |= pgm_read_byte(&row_bit[i]);		// set bit
 8c8:	fc 01       	movw	r30, r24
 8ca:	ef 5c       	subi	r30, 0xCF	; 207
 8cc:	ff 4f       	sbci	r31, 0xFF	; 255
 8ce:	44 91       	lpm	r20, Z
 8d0:	fc 01       	movw	r30, r24
 8d2:	e6 5d       	subi	r30, 0xD6	; 214
 8d4:	ff 4f       	sbci	r31, 0xFF	; 255
 8d6:	e4 91       	lpm	r30, Z
 8d8:	a1 e0       	ldi	r26, 0x01	; 1
 8da:	b0 e0       	ldi	r27, 0x00	; 0
 8dc:	ac 0f       	add	r26, r28
 8de:	bd 1f       	adc	r27, r29
 8e0:	a4 0f       	add	r26, r20
 8e2:	b1 1d       	adc	r27, r1
 8e4:	4c 91       	ld	r20, X
 8e6:	4e 2b       	or	r20, r30
 8e8:	4c 93       	st	X, r20
		}
		NEXT_BIT;
 8ea:	36 95       	lsr	r19
 8ec:	01 96       	adiw	r24, 0x01	; 1
{
	uint8_t i;
	uint8_t p[3];

	p[0] = 0;  p[1] = 0;  p[2] = 0;
	for (i = 0; i < DISP_ROWS; i++) {
 8ee:	87 30       	cpi	r24, 0x07	; 7
 8f0:	91 05       	cpc	r25, r1
 8f2:	41 f7       	brne	.-48     	; 0x8c4 <dmDisplay+0x3e>
 8f4:	80 e0       	ldi	r24, 0x00	; 0
 8f6:	90 e0       	ldi	r25, 0x00	; 0
			p[ pgm_read_byte(&row_port[i]) ] |= pgm_read_byte(&row_bit[i]);		// set bit
		}
		NEXT_BIT;
	}		
	for (i = 0; i < DISP_COLUMNS; i++) {
		if (i != COL) {					// note: COL is a macro
 8f8:	28 17       	cp	r18, r24
 8fa:	89 f0       	breq	.+34     	; 0x91e <dmDisplay+0x98>
			p[ pgm_read_byte(&col_port[i]) ] |= pgm_read_byte(&col_bit[i]);		// set bit
 8fc:	fc 01       	movw	r30, r24
 8fe:	e3 5c       	subi	r30, 0xC3	; 195
 900:	ff 4f       	sbci	r31, 0xFF	; 255
 902:	34 91       	lpm	r19, Z
 904:	fc 01       	movw	r30, r24
 906:	e8 5c       	subi	r30, 0xC8	; 200
 908:	ff 4f       	sbci	r31, 0xFF	; 255
 90a:	e4 91       	lpm	r30, Z
 90c:	a1 e0       	ldi	r26, 0x01	; 1
 90e:	b0 e0       	ldi	r27, 0x00	; 0
 910:	ac 0f       	add	r26, r28
 912:	bd 1f       	adc	r27, r29
 914:	a3 0f       	add	r26, r19
 916:	b1 1d       	adc	r27, r1
 918:	3c 91       	ld	r19, X
 91a:	3e 2b       	or	r19, r30
 91c:	3c 93       	st	X, r19
 91e:	01 96       	adiw	r24, 0x01	; 1
		if (BIT_IS_ON) {
			p[ pgm_read_byte(&row_port[i]) ] |= pgm_read_byte(&row_bit[i]);		// set bit
		}
		NEXT_BIT;
	}		
	for (i = 0; i < DISP_COLUMNS; i++) {
 920:	85 30       	cpi	r24, 0x05	; 5
 922:	91 05       	cpc	r25, r1
 924:	49 f7       	brne	.-46     	; 0x8f8 <dmDisplay+0x72>
		if (i != COL) {					// note: COL is a macro
			p[ pgm_read_byte(&col_port[i]) ] |= pgm_read_byte(&col_bit[i]);		// set bit
		}
	}
	#if DISP_TYPE == 1					// if we use a display with common column anode
		p[0] ^= DISP_MASK_A;				// -> invert outputs
 926:	99 81       	ldd	r25, Y+1	; 0x01
 928:	83 e0       	ldi	r24, 0x03	; 3
 92a:	98 27       	eor	r25, r24
		p[1] ^= DISP_MASK_B;
 92c:	8a 81       	ldd	r24, Y+2	; 0x02
 92e:	2e e7       	ldi	r18, 0x7E	; 126
 930:	82 27       	eor	r24, r18
 932:	8a 83       	std	Y+2, r24	; 0x02
		p[2] ^= DISP_MASK_D;
 934:	8b 81       	ldd	r24, Y+3	; 0x03
 936:	2e e1       	ldi	r18, 0x1E	; 30
 938:	82 27       	eor	r24, r18
 93a:	8b 83       	std	Y+3, r24	; 0x03
	#endif

	// set outputs
	i = PORTA & ~DISP_MASK_A;
 93c:	8b b3       	in	r24, 0x1b	; 27
 93e:	8c 7f       	andi	r24, 0xFC	; 252
	PORTA = i | p[0];
 940:	89 2b       	or	r24, r25
 942:	8b bb       	out	0x1b, r24	; 27
	i = PORTB & ~DISP_MASK_B;
 944:	88 b3       	in	r24, 0x18	; 24
 946:	81 78       	andi	r24, 0x81	; 129
	PORTB = i | p[1];
 948:	9a 81       	ldd	r25, Y+2	; 0x02
 94a:	89 2b       	or	r24, r25
 94c:	88 bb       	out	0x18, r24	; 24
	i = PORTD & ~DISP_MASK_D;
 94e:	82 b3       	in	r24, 0x12	; 18
 950:	81 7e       	andi	r24, 0xE1	; 225
	PORTD = i | p[2];
 952:	9b 81       	ldd	r25, Y+3	; 0x03
 954:	89 2b       	or	r24, r25
 956:	82 bb       	out	0x12, r24	; 18
	}
	else {
		display.curr_col++;
	}
	dmSetOutputs(display.curr_col, display.memory[display.base + display.curr_col]);
}
 958:	cd 5f       	subi	r28, 0xFD	; 253
 95a:	cd bf       	out	0x3d, r28	; 61
 95c:	df 91       	pop	r29
 95e:	cf 91       	pop	r28
 960:	08 95       	ret

00000962 <dmScroll>:
======================================================================*/
uint8_t dmScroll(void)
{
	uint8_t temp, mode;

	mode = display.scroll_mode;
 962:	f0 91 35 01 	lds	r31, 0x0135
	temp = mode & 0x0F;										// extract increment
 966:	8f 2f       	mov	r24, r31
 968:	8f 70       	andi	r24, 0x0F	; 15
	if (mode & 0x10)	{ temp = display.base - temp; }		// scrolling backward
 96a:	4f 2f       	mov	r20, r31
 96c:	50 e0       	ldi	r21, 0x00	; 0
 96e:	ba 01       	movw	r22, r20
 970:	60 71       	andi	r22, 0x10	; 16
 972:	70 70       	andi	r23, 0x00	; 0
 974:	e0 91 33 01 	lds	r30, 0x0133
 978:	f4 ff       	sbrs	r31, 4
 97a:	02 c0       	rjmp	.+4      	; 0x980 <dmScroll+0x1e>
 97c:	e8 1b       	sub	r30, r24
 97e:	01 c0       	rjmp	.+2      	; 0x982 <dmScroll+0x20>
															// We use a dirty trick here:
															// Temp may underflow at left end of display memory.
	else				{ temp = display.base + temp; }		// scrolling forward
 980:	e8 0f       	add	r30, r24

	if ((temp + DISP_COLUMNS) > display.cursor ) {			// end of scrolling range reached?
 982:	a0 91 36 01 	lds	r26, 0x0136
 986:	8e 2f       	mov	r24, r30
 988:	90 e0       	ldi	r25, 0x00	; 0
 98a:	04 96       	adiw	r24, 0x04	; 4
 98c:	2a 2f       	mov	r18, r26
 98e:	30 e0       	ldi	r19, 0x00	; 0
 990:	82 17       	cp	r24, r18
 992:	93 07       	cpc	r25, r19
 994:	f4 f0       	brlt	.+60     	; 0x9d2 <dmScroll+0x70>
															// Note: As temp is allowed to underflow, this is 
															// true at both ends of the display memory.
		if (display.delay_counter) {
 996:	80 91 38 01 	lds	r24, 0x0138
 99a:	88 23       	and	r24, r24
 99c:	21 f0       	breq	.+8      	; 0x9a6 <dmScroll+0x44>
			display.delay_counter--;
 99e:	81 50       	subi	r24, 0x01	; 1
 9a0:	80 93 38 01 	sts	0x0138, r24
 9a4:	14 c0       	rjmp	.+40     	; 0x9ce <dmScroll+0x6c>
		}
		else {
			display.delay_counter = display.scroll_delay;					// reload delay counter
 9a6:	80 91 37 01 	lds	r24, 0x0137
 9aa:	80 93 38 01 	sts	0x0138, r24
			if (mode & 0x20)		{ display.scroll_mode = mode ^ 0x10; }	// reverse direction
 9ae:	45 ff       	sbrs	r20, 5
 9b0:	05 c0       	rjmp	.+10     	; 0x9bc <dmScroll+0x5a>
 9b2:	80 e1       	ldi	r24, 0x10	; 16
 9b4:	8f 27       	eor	r24, r31
 9b6:	80 93 35 01 	sts	0x0135, r24
 9ba:	09 c0       	rjmp	.+18     	; 0x9ce <dmScroll+0x6c>
			else if (mode &0x10)	{ display.base = display.cursor - DISP_COLUMNS; }	// restart from right end
 9bc:	61 15       	cp	r22, r1
 9be:	71 05       	cpc	r23, r1
 9c0:	21 f0       	breq	.+8      	; 0x9ca <dmScroll+0x68>
 9c2:	a5 50       	subi	r26, 0x05	; 5
 9c4:	a0 93 33 01 	sts	0x0133, r26
 9c8:	02 c0       	rjmp	.+4      	; 0x9ce <dmScroll+0x6c>
			else					{ display.base = 0; }					// restart from left end
 9ca:	10 92 33 01 	sts	0x0133, r1
		}
		return (1);
 9ce:	81 e0       	ldi	r24, 0x01	; 1
 9d0:	08 95       	ret
	}
	else {
		display.base = temp;
 9d2:	e0 93 33 01 	sts	0x0133, r30
		return (0);
 9d6:	80 e0       	ldi	r24, 0x00	; 0
	}
}
 9d8:	08 95       	ret

000009da <dmSetScrolling>:
	Description:	Set scrolling increment and direction.
					Delay sets number of scrolling steps to wait at end of scrolling range.
======================================================================*/
void dmSetScrolling(uint8_t inc, uint8_t dir, uint8_t delay)
{
	inc &= 0x0F;		// limit range
 9da:	8f 70       	andi	r24, 0x0F	; 15
	dir &= 0x03;		// limit range
 9dc:	63 70       	andi	r22, 0x03	; 3
	if (dir != BACKWARD)	{ display.delay_counter = delay; }
 9de:	61 30       	cpi	r22, 0x01	; 1
 9e0:	19 f0       	breq	.+6      	; 0x9e8 <dmSetScrolling+0xe>
 9e2:	40 93 38 01 	sts	0x0138, r20
 9e6:	02 c0       	rjmp	.+4      	; 0x9ec <dmSetScrolling+0x12>
	else					{ display.delay_counter = 0; }
 9e8:	10 92 38 01 	sts	0x0138, r1
	swap(dir);
 9ec:	62 95       	swap	r22
	display.scroll_mode   = inc | dir;
 9ee:	68 2b       	or	r22, r24
 9f0:	60 93 35 01 	sts	0x0135, r22
	display.scroll_delay  = delay;
 9f4:	40 93 37 01 	sts	0x0137, r20
}
 9f8:	08 95       	ret

000009fa <dmClearDisplay>:
======================================================================*/
void dmClearDisplay(void)
{
	uint8_t i;

	display.base  = 0;
 9fa:	10 92 33 01 	sts	0x0133, r1
	display.cursor = 0;
 9fe:	10 92 36 01 	sts	0x0136, r1
	for (i = 0; i < DISP_COLUMNS; i++) {
		display.memory[i] = 0;
 a02:	10 92 6b 00 	sts	0x006B, r1
 a06:	10 92 6c 00 	sts	0x006C, r1
 a0a:	10 92 6d 00 	sts	0x006D, r1
 a0e:	10 92 6e 00 	sts	0x006E, r1
 a12:	10 92 6f 00 	sts	0x006F, r1
	}
}
 a16:	08 95       	ret

00000a18 <dmInit>:
	Output:			none
	Description:	Initialize the hardware.
======================================================================*/
void dmInit(void)
{
	dmClearDisplay();
 a18:	f0 df       	rcall	.-32     	; 0x9fa <dmClearDisplay>
	display.scroll_mode = 0;
 a1a:	10 92 35 01 	sts	0x0135, r1
	display.scroll_delay = 0;
 a1e:	10 92 37 01 	sts	0x0137, r1
}
 a22:	08 95       	ret

00000a24 <dmDisplayImage>:
======================================================================*/
void dmDisplayImage(const uint8_t* image)
{
	uint8_t img_data, pos;

	pos = display.cursor;
 a24:	20 91 36 01 	lds	r18, 0x0136
	while(pos < DISP_MAX) {
 a28:	0b c0       	rjmp	.+22     	; 0xa40 <dmDisplayImage+0x1c>
		img_data = pgm_read_byte(image++);	// read byte from flash
 a2a:	fc 01       	movw	r30, r24
 a2c:	34 91       	lpm	r19, Z
		if (img_data == 0xFF) { break; }	// stop if end-of-data has been reached
 a2e:	3f 3f       	cpi	r19, 0xFF	; 255
 a30:	49 f0       	breq	.+18     	; 0xa44 <dmDisplayImage+0x20>
{
	uint8_t img_data, pos;

	pos = display.cursor;
	while(pos < DISP_MAX) {
		img_data = pgm_read_byte(image++);	// read byte from flash
 a32:	01 96       	adiw	r24, 0x01	; 1
		if (img_data == 0xFF) { break; }	// stop if end-of-data has been reached
		display.memory[pos] = img_data;
 a34:	e2 2f       	mov	r30, r18
 a36:	f0 e0       	ldi	r31, 0x00	; 0
 a38:	e5 59       	subi	r30, 0x95	; 149
 a3a:	ff 4f       	sbci	r31, 0xFF	; 255
 a3c:	30 83       	st	Z, r19
		pos++;
 a3e:	2f 5f       	subi	r18, 0xFF	; 255
void dmDisplayImage(const uint8_t* image)
{
	uint8_t img_data, pos;

	pos = display.cursor;
	while(pos < DISP_MAX) {
 a40:	28 3c       	cpi	r18, 0xC8	; 200
 a42:	98 f3       	brcs	.-26     	; 0xa2a <dmDisplayImage+0x6>
		img_data = pgm_read_byte(image++);	// read byte from flash
		if (img_data == 0xFF) { break; }	// stop if end-of-data has been reached
		display.memory[pos] = img_data;
		pos++;
	}
	display.cursor = pos;
 a44:	20 93 36 01 	sts	0x0136, r18
}
 a48:	08 95       	ret

00000a4a <dmPrintByte>:
======================================================================*/
void dmPrintByte(uint8_t byt)
{
	uint8_t pos;

	pos = display.cursor;
 a4a:	90 91 36 01 	lds	r25, 0x0136
	if (pos < DISP_MAX) { 
 a4e:	98 3c       	cpi	r25, 0xC8	; 200
 a50:	40 f4       	brcc	.+16     	; 0xa62 <dmPrintByte+0x18>
		display.memory[pos] = byt;
 a52:	e9 2f       	mov	r30, r25
 a54:	f0 e0       	ldi	r31, 0x00	; 0
 a56:	e5 59       	subi	r30, 0x95	; 149
 a58:	ff 4f       	sbci	r31, 0xFF	; 255
 a5a:	80 83       	st	Z, r24
		pos++;
 a5c:	9f 5f       	subi	r25, 0xFF	; 255
		display.cursor = pos;
 a5e:	90 93 36 01 	sts	0x0136, r25
 a62:	08 95       	ret

00000a64 <dmPrintChar>:
{
	uint8_t  i, pos, char_data;
	uint16_t fnt;			// pointer into character font

	// mapping of german special characters
	if (ch == 223) { ch = 138; }		// 'ß'
 a64:	8f 3d       	cpi	r24, 0xDF	; 223
 a66:	49 f0       	breq	.+18     	; 0xa7a <dmPrintChar+0x16>
	if (ch == 196) { ch = 133; }		// 'Ä'
 a68:	84 3c       	cpi	r24, 0xC4	; 196
 a6a:	61 f0       	breq	.+24     	; 0xa84 <dmPrintChar+0x20>
	if (ch == 214) { ch = 135; }		// 'Ö'
 a6c:	86 3d       	cpi	r24, 0xD6	; 214
 a6e:	79 f0       	breq	.+30     	; 0xa8e <dmPrintChar+0x2a>
	if (ch == 220) { ch = 137; }		// 'Ü'
 a70:	8c 3d       	cpi	r24, 0xDC	; 220
 a72:	79 f0       	breq	.+30     	; 0xa92 <dmPrintChar+0x2e>
	if (ch == 228) { ch = 132; }		// 'ä'
 a74:	84 3e       	cpi	r24, 0xE4	; 228
 a76:	79 f0       	breq	.+30     	; 0xa96 <dmPrintChar+0x32>
 a78:	02 c0       	rjmp	.+4      	; 0xa7e <dmPrintChar+0x1a>
{
	uint8_t  i, pos, char_data;
	uint16_t fnt;			// pointer into character font

	// mapping of german special characters
	if (ch == 223) { ch = 138; }		// 'ß'
 a7a:	8a e8       	ldi	r24, 0x8A	; 138
 a7c:	11 c0       	rjmp	.+34     	; 0xaa0 <dmPrintChar+0x3c>
	if (ch == 196) { ch = 133; }		// 'Ä'
	if (ch == 214) { ch = 135; }		// 'Ö'
	if (ch == 220) { ch = 137; }		// 'Ü'
	if (ch == 228) { ch = 132; }		// 'ä'
	if (ch == 246) { ch = 134; }		// 'ö'
 a7e:	86 3f       	cpi	r24, 0xF6	; 246
 a80:	61 f0       	breq	.+24     	; 0xa9a <dmPrintChar+0x36>
 a82:	02 c0       	rjmp	.+4      	; 0xa88 <dmPrintChar+0x24>
	uint8_t  i, pos, char_data;
	uint16_t fnt;			// pointer into character font

	// mapping of german special characters
	if (ch == 223) { ch = 138; }		// 'ß'
	if (ch == 196) { ch = 133; }		// 'Ä'
 a84:	85 e8       	ldi	r24, 0x85	; 133
 a86:	0c c0       	rjmp	.+24     	; 0xaa0 <dmPrintChar+0x3c>
	if (ch == 214) { ch = 135; }		// 'Ö'
	if (ch == 220) { ch = 137; }		// 'Ü'
	if (ch == 228) { ch = 132; }		// 'ä'
	if (ch == 246) { ch = 134; }		// 'ö'
	if (ch == 252) { ch = 136; }		// 'ü'
 a88:	8c 3f       	cpi	r24, 0xFC	; 252
 a8a:	49 f0       	breq	.+18     	; 0xa9e <dmPrintChar+0x3a>
 a8c:	09 c0       	rjmp	.+18     	; 0xaa0 <dmPrintChar+0x3c>
	uint16_t fnt;			// pointer into character font

	// mapping of german special characters
	if (ch == 223) { ch = 138; }		// 'ß'
	if (ch == 196) { ch = 133; }		// 'Ä'
	if (ch == 214) { ch = 135; }		// 'Ö'
 a8e:	87 e8       	ldi	r24, 0x87	; 135
 a90:	07 c0       	rjmp	.+14     	; 0xaa0 <dmPrintChar+0x3c>
	if (ch == 220) { ch = 137; }		// 'Ü'
 a92:	89 e8       	ldi	r24, 0x89	; 137
 a94:	05 c0       	rjmp	.+10     	; 0xaa0 <dmPrintChar+0x3c>
	if (ch == 228) { ch = 132; }		// 'ä'
 a96:	84 e8       	ldi	r24, 0x84	; 132
 a98:	03 c0       	rjmp	.+6      	; 0xaa0 <dmPrintChar+0x3c>
	if (ch == 246) { ch = 134; }		// 'ö'
 a9a:	86 e8       	ldi	r24, 0x86	; 134
 a9c:	01 c0       	rjmp	.+2      	; 0xaa0 <dmPrintChar+0x3c>
	if (ch == 252) { ch = 136; }		// 'ü'
 a9e:	88 e8       	ldi	r24, 0x88	; 136
	ch -= 32;
 aa0:	80 52       	subi	r24, 0x20	; 32
	if (ch > (sizeof(font)/CHAR_WIDTH)) { return; }
 aa2:	81 39       	cpi	r24, 0x91	; 145
 aa4:	10 f5       	brcc	.+68     	; 0xaea <dmPrintChar+0x86>
		
	fnt = ch;
 aa6:	e8 2f       	mov	r30, r24
 aa8:	f0 e0       	ldi	r31, 0x00	; 0
	fnt = (fnt << 2) + fnt + (uint16_t) &font[0];		// fnt = &font + 5 * ch
 aaa:	cf 01       	movw	r24, r30
 aac:	88 0f       	add	r24, r24
 aae:	99 1f       	adc	r25, r25
 ab0:	88 0f       	add	r24, r24
 ab2:	99 1f       	adc	r25, r25
 ab4:	ee 5b       	subi	r30, 0xBE	; 190
 ab6:	ff 4f       	sbci	r31, 0xFF	; 255
 ab8:	e8 0f       	add	r30, r24
 aba:	f9 1f       	adc	r31, r25
	
	pos = display.cursor;
 abc:	80 91 36 01 	lds	r24, 0x0136
 ac0:	95 e0       	ldi	r25, 0x05	; 5
 ac2:	01 c0       	rjmp	.+2      	; 0xac6 <dmPrintChar+0x62>
	for (i = 0; i < CHAR_WIDTH; i++) {
		char_data = pgm_read_byte(fnt++);	// read byte from font
 ac4:	f9 01       	movw	r30, r18
 ac6:	9f 01       	movw	r18, r30
 ac8:	2f 5f       	subi	r18, 0xFF	; 255
 aca:	3f 4f       	sbci	r19, 0xFF	; 255
 acc:	e4 91       	lpm	r30, Z
		if (char_data & 0x80) { break; }	// stop if MSB is set (proportional character width)
 ace:	e7 fd       	sbrc	r30, 7
 ad0:	0a c0       	rjmp	.+20     	; 0xae6 <dmPrintChar+0x82>
		if (pos < DISP_MAX) {
 ad2:	88 3c       	cpi	r24, 0xC8	; 200
 ad4:	30 f4       	brcc	.+12     	; 0xae2 <dmPrintChar+0x7e>
			display.memory[pos] = char_data;
 ad6:	a8 2f       	mov	r26, r24
 ad8:	b0 e0       	ldi	r27, 0x00	; 0
 ada:	a5 59       	subi	r26, 0x95	; 149
 adc:	bf 4f       	sbci	r27, 0xFF	; 255
 ade:	ec 93       	st	X, r30
			pos++;
 ae0:	8f 5f       	subi	r24, 0xFF	; 255
 ae2:	91 50       	subi	r25, 0x01	; 1
		
	fnt = ch;
	fnt = (fnt << 2) + fnt + (uint16_t) &font[0];		// fnt = &font + 5 * ch
	
	pos = display.cursor;
	for (i = 0; i < CHAR_WIDTH; i++) {
 ae4:	79 f7       	brne	.-34     	; 0xac4 <dmPrintChar+0x60>
		if (pos < DISP_MAX) {
			display.memory[pos] = char_data;
			pos++;
		}		
	}
	display.cursor = pos;
 ae6:	80 93 36 01 	sts	0x0136, r24
 aea:	08 95       	ret

00000aec <InitHardware>:
	Description:	.
======================================================================*/
void InitHardware(void)
{
	// switch all pins that are connected to the dot matrix to output
	DDRA = DISP_MASK_A;
 aec:	83 e0       	ldi	r24, 0x03	; 3
 aee:	8a bb       	out	0x1a, r24	; 26
	DDRB = DISP_MASK_B;
 af0:	8e e7       	ldi	r24, 0x7E	; 126
 af2:	87 bb       	out	0x17, r24	; 23
	DDRD = DISP_MASK_D;
 af4:	8e e1       	ldi	r24, 0x1E	; 30
 af6:	81 bb       	out	0x11, r24	; 17
	
	// enable pull-ups on all input pins to avoid floating inputs
	PORTA |= ~DISP_MASK_A;
 af8:	8b b3       	in	r24, 0x1b	; 27
 afa:	8c 6f       	ori	r24, 0xFC	; 252
 afc:	8b bb       	out	0x1b, r24	; 27
	PORTB |= ~DISP_MASK_B;
 afe:	88 b3       	in	r24, 0x18	; 24
 b00:	81 68       	ori	r24, 0x81	; 129
 b02:	88 bb       	out	0x18, r24	; 24
	PORTD |= ~DISP_MASK_D;
 b04:	82 b3       	in	r24, 0x12	; 18
 b06:	81 6e       	ori	r24, 0xE1	; 225
 b08:	82 bb       	out	0x12, r24	; 18
	
	// timer 0
	TCCR0A = (0<<WGM00);				// timer mode = normal
 b0a:	10 be       	out	0x30, r1	; 48
	TCCR0B = (5<<CS00);					// prescaler = 1:1024
 b0c:	85 e0       	ldi	r24, 0x05	; 5
 b0e:	83 bf       	out	0x33, r24	; 51
	OCR0A = OCR0A_CYCLE_TIME;
 b10:	84 e0       	ldi	r24, 0x04	; 4
 b12:	86 bf       	out	0x36, r24	; 54
	OCR0B = OCR0B_CYCLE_TIME;
 b14:	87 e2       	ldi	r24, 0x27	; 39
 b16:	8c bf       	out	0x3c, r24	; 60
	TIMSK |= (1<<OCIE0B)|(1<<OCIE0A);
 b18:	89 b7       	in	r24, 0x39	; 57
 b1a:	85 60       	ori	r24, 0x05	; 5
 b1c:	89 bf       	out	0x39, r24	; 57
	
	// serial interface
	// Note: Speed of the serial interface must not be higher than 2400 Baud.
	// This leaves enough time for the EEPROM write operation to complete before 
	// the next byte arrives.
	UBRRL = 103;						// 2400 baud
 b1e:	87 e6       	ldi	r24, 0x67	; 103
 b20:	89 b9       	out	0x09, r24	; 9
	UBRRH = 0;
 b22:	12 b8       	out	0x02, r1	; 2
	UCSRB = (1<<RXCIE)|(1<<RXEN);		// enable receiver, enable RX interrupt
 b24:	80 e9       	ldi	r24, 0x90	; 144
 b26:	8a b9       	out	0x0a, r24	; 10
	UCSRC = (3<<UCSZ0);					// async USART, 8 data bits, no parity, 1 stop bit
 b28:	86 e0       	ldi	r24, 0x06	; 6
 b2a:	83 b9       	out	0x03, r24	; 3
}
 b2c:	08 95       	ret

00000b2e <SetMode>:
					Bit 6..4:	delay between scrolling repetitions (0 = shortest, 7 = longest)
					Bit 3:		scrolling increment (cleared = +1 (for texts), set = +5 (for animations))
					Bit 2..0:	scrolling speed (1 = slowest, 7 = fastest)
======================================================================*/
void SetMode(const uint8_t* ee_adr)
{
 b2e:	cf 93       	push	r28
	uint8_t mode;
	uint8_t inc, dir, dly, spd;

	mode = eeprom_read_byte(ee_adr);
 b30:	20 d2       	rcall	.+1088   	; 0xf72 <__eerd_byte_tn4313>
 b32:	c8 2f       	mov	r28, r24
	if (mode & 0x08)	{ inc = 5; }
 b34:	83 ff       	sbrs	r24, 3
 b36:	02 c0       	rjmp	.+4      	; 0xb3c <SetMode+0xe>
 b38:	85 e0       	ldi	r24, 0x05	; 5
 b3a:	01 c0       	rjmp	.+2      	; 0xb3e <SetMode+0x10>
		else			{ inc = 1; }
 b3c:	81 e0       	ldi	r24, 0x01	; 1
	if (mode & 0x80)	{ dir = BIDIRECTIONAL; }
 b3e:	6c 2f       	mov	r22, r28
 b40:	66 1f       	adc	r22, r22
 b42:	66 27       	eor	r22, r22
 b44:	66 1f       	adc	r22, r22
 b46:	66 0f       	add	r22, r22
		else			{ dir = FORWARD; }
	spd = mode & 0x07;
	dly = swap(mode) & 0x07;
 b48:	ec 2f       	mov	r30, r28
 b4a:	e2 95       	swap	r30
 b4c:	e7 70       	andi	r30, 0x07	; 7
	dmSetScrolling(inc, dir, pgm_read_byte(&dly_conv[dly]));
 b4e:	f0 e0       	ldi	r31, 0x00	; 0
 b50:	eb 5b       	subi	r30, 0xBB	; 187
 b52:	f7 4f       	sbci	r31, 0xF7	; 247
 b54:	44 91       	lpm	r20, Z
 b56:	41 df       	rcall	.-382    	; 0x9da <dmSetScrolling>
	mode = eeprom_read_byte(ee_adr);
	if (mode & 0x08)	{ inc = 5; }
		else			{ inc = 1; }
	if (mode & 0x80)	{ dir = BIDIRECTIONAL; }
		else			{ dir = FORWARD; }
	spd = mode & 0x07;
 b58:	c7 70       	andi	r28, 0x07	; 7
	dly = swap(mode) & 0x07;
	dmSetScrolling(inc, dir, pgm_read_byte(&dly_conv[dly]));
	scroll_speed = pgm_read_byte(&spd_conv[spd]);
 b5a:	ec 2f       	mov	r30, r28
 b5c:	f0 e0       	ldi	r31, 0x00	; 0
 b5e:	e3 5c       	subi	r30, 0xC3	; 195
 b60:	f7 4f       	sbci	r31, 0xF7	; 247
 b62:	e4 91       	lpm	r30, Z
 b64:	e0 93 65 00 	sts	0x0065, r30
}		
 b68:	cf 91       	pop	r28
 b6a:	08 95       	ret

00000b6c <DisplayMessage>:
					the following bytes are directly written to the display 
					memory without being decoded using the character font.
					Direct mode is ended by 0xFF.
======================================================================*/
uint8_t* DisplayMessage(uint8_t* ee_adr)
{
 b6c:	ef 92       	push	r14
 b6e:	ff 92       	push	r15
 b70:	0f 93       	push	r16
 b72:	1f 93       	push	r17
 b74:	cf 93       	push	r28
 b76:	df 93       	push	r29
 b78:	0f 92       	push	r0
 b7a:	cd b7       	in	r28, 0x3d	; 61
 b7c:	de b7       	in	r29, 0x3e	; 62
 b7e:	7c 01       	movw	r14, r24
	uint8_t ch;

	SetMode(ee_adr);
 b80:	d6 df       	rcall	.-84     	; 0xb2e <SetMode>
	ee_adr++;
	dmClearDisplay();
 b82:	3b df       	rcall	.-394    	; 0x9fa <dmClearDisplay>

	ch = eeprom_read_byte(ee_adr++);
 b84:	87 01       	movw	r16, r14
 b86:	0e 5f       	subi	r16, 0xFE	; 254
 b88:	1f 4f       	sbci	r17, 0xFF	; 255
 b8a:	c7 01       	movw	r24, r14
 b8c:	01 96       	adiw	r24, 0x01	; 1
 b8e:	f1 d1       	rcall	.+994    	; 0xf72 <__eerd_byte_tn4313>
 b90:	98 2f       	mov	r25, r24
	while (ch) {
 b92:	42 c0       	rjmp	.+132    	; 0xc18 <DisplayMessage+0xac>
		if (ch == '~') {					// animation
			ch = eeprom_read_byte(ee_adr++);
 b94:	78 01       	movw	r14, r16
	ee_adr++;
	dmClearDisplay();

	ch = eeprom_read_byte(ee_adr++);
	while (ch) {
		if (ch == '~') {					// animation
 b96:	9e 37       	cpi	r25, 0x7E	; 126
 b98:	a1 f4       	brne	.+40     	; 0xbc2 <DisplayMessage+0x56>
			ch = eeprom_read_byte(ee_adr++);
 b9a:	08 94       	sec
 b9c:	e1 1c       	adc	r14, r1
 b9e:	f1 1c       	adc	r15, r1
 ba0:	c8 01       	movw	r24, r16
 ba2:	e7 d1       	rcall	.+974    	; 0xf72 <__eerd_byte_tn4313>
			if (ch != '~') {
 ba4:	8e 37       	cpi	r24, 0x7E	; 126
 ba6:	61 f1       	breq	.+88     	; 0xc00 <DisplayMessage+0x94>
				ch -= 'A';
 ba8:	e8 2f       	mov	r30, r24
 baa:	e1 54       	subi	r30, 0x41	; 65
				if (ch < ANIMATION_COUNT) {
 bac:	e6 31       	cpi	r30, 0x16	; 22
 bae:	40 f5       	brcc	.+80     	; 0xc00 <DisplayMessage+0x94>
					dmDisplayImage((const uint8_t*)pgm_read_word(&animation[ch]));
 bb0:	f0 e0       	ldi	r31, 0x00	; 0
 bb2:	ee 0f       	add	r30, r30
 bb4:	ff 1f       	adc	r31, r31
 bb6:	ee 5e       	subi	r30, 0xEE	; 238
 bb8:	fc 4f       	sbci	r31, 0xFC	; 252
 bba:	85 91       	lpm	r24, Z+
 bbc:	94 91       	lpm	r25, Z
 bbe:	32 df       	rcall	.-412    	; 0xa24 <dmDisplayImage>
 bc0:	1f c0       	rjmp	.+62     	; 0xc00 <DisplayMessage+0x94>
				}				
			}
		}
		else if (ch == 0xFF) {				// direct mode
 bc2:	9f 3f       	cpi	r25, 0xFF	; 255
 bc4:	81 f4       	brne	.+32     	; 0xbe6 <DisplayMessage+0x7a>
			ch = eeprom_read_byte(ee_adr++);
 bc6:	08 94       	sec
 bc8:	e1 1c       	adc	r14, r1
 bca:	f1 1c       	adc	r15, r1
 bcc:	c8 01       	movw	r24, r16
 bce:	d1 d1       	rcall	.+930    	; 0xf72 <__eerd_byte_tn4313>
			while (ch != 0xFF) {
 bd0:	07 c0       	rjmp	.+14     	; 0xbe0 <DisplayMessage+0x74>
				dmPrintByte(ch);
 bd2:	3b df       	rcall	.-394    	; 0xa4a <dmPrintByte>
				ch = eeprom_read_byte(ee_adr++);
 bd4:	87 01       	movw	r16, r14
 bd6:	0f 5f       	subi	r16, 0xFF	; 255
 bd8:	1f 4f       	sbci	r17, 0xFF	; 255
 bda:	c7 01       	movw	r24, r14
 bdc:	ca d1       	rcall	.+916    	; 0xf72 <__eerd_byte_tn4313>
 bde:	78 01       	movw	r14, r16
				}				
			}
		}
		else if (ch == 0xFF) {				// direct mode
			ch = eeprom_read_byte(ee_adr++);
			while (ch != 0xFF) {
 be0:	8f 3f       	cpi	r24, 0xFF	; 255
 be2:	b9 f7       	brne	.-18     	; 0xbd2 <DisplayMessage+0x66>
 be4:	0d c0       	rjmp	.+26     	; 0xc00 <DisplayMessage+0x94>
				dmPrintByte(ch);
				ch = eeprom_read_byte(ee_adr++);
			}
		}
		else {								// character
			if (ch == '^') {				// special character
 be6:	9e 35       	cpi	r25, 0x5E	; 94
 be8:	49 f4       	brne	.+18     	; 0xbfc <DisplayMessage+0x90>
				ch = eeprom_read_byte(ee_adr++);
 bea:	08 94       	sec
 bec:	e1 1c       	adc	r14, r1
 bee:	f1 1c       	adc	r15, r1
 bf0:	c8 01       	movw	r24, r16
 bf2:	bf d1       	rcall	.+894    	; 0xf72 <__eerd_byte_tn4313>
 bf4:	98 2f       	mov	r25, r24
				if (ch != '^') {
 bf6:	8e 35       	cpi	r24, 0x5E	; 94
 bf8:	09 f0       	breq	.+2      	; 0xbfc <DisplayMessage+0x90>
					ch += 63;
 bfa:	91 5c       	subi	r25, 0xC1	; 193
				}
			}
			dmPrintChar(ch);
 bfc:	89 2f       	mov	r24, r25
 bfe:	32 df       	rcall	.-412    	; 0xa64 <dmPrintChar>
		}
		ch = eeprom_read_byte(ee_adr++);
 c00:	87 01       	movw	r16, r14
 c02:	0f 5f       	subi	r16, 0xFF	; 255
 c04:	1f 4f       	sbci	r17, 0xFF	; 255
 c06:	c7 01       	movw	r24, r14
 c08:	b4 d1       	rcall	.+872    	; 0xf72 <__eerd_byte_tn4313>
 c0a:	98 2f       	mov	r25, r24
		if (ch) { dmPrintByte(0); }			// print a narrow space except for the last character					
 c0c:	88 23       	and	r24, r24
 c0e:	21 f0       	breq	.+8      	; 0xc18 <DisplayMessage+0xac>
 c10:	80 e0       	ldi	r24, 0x00	; 0
 c12:	99 83       	std	Y+1, r25	; 0x01
 c14:	1a df       	rcall	.-460    	; 0xa4a <dmPrintByte>
 c16:	99 81       	ldd	r25, Y+1	; 0x01
	SetMode(ee_adr);
	ee_adr++;
	dmClearDisplay();

	ch = eeprom_read_byte(ee_adr++);
	while (ch) {
 c18:	99 23       	and	r25, r25
 c1a:	09 f0       	breq	.+2      	; 0xc1e <DisplayMessage+0xb2>
 c1c:	bb cf       	rjmp	.-138    	; 0xb94 <DisplayMessage+0x28>
			dmPrintChar(ch);
		}
		ch = eeprom_read_byte(ee_adr++);
		if (ch) { dmPrintByte(0); }			// print a narrow space except for the last character					
	}
	ch = eeprom_read_byte(ee_adr);			// read mode byte of next message
 c1e:	c8 01       	movw	r24, r16
 c20:	a8 d1       	rcall	.+848    	; 0xf72 <__eerd_byte_tn4313>
	if (ch)		{ return(ee_adr); }
 c22:	88 23       	and	r24, r24
 c24:	11 f4       	brne	.+4      	; 0xc2a <DisplayMessage+0xbe>
		else	{ return((uint8_t*) messages); }	// restart all-over if mode byte is 0
 c26:	00 e0       	ldi	r16, 0x00	; 0
 c28:	10 e0       	ldi	r17, 0x00	; 0
}		
 c2a:	c8 01       	movw	r24, r16
 c2c:	0f 90       	pop	r0
 c2e:	df 91       	pop	r29
 c30:	cf 91       	pop	r28
 c32:	1f 91       	pop	r17
 c34:	0f 91       	pop	r16
 c36:	ff 90       	pop	r15
 c38:	ef 90       	pop	r14
 c3a:	08 95       	ret

00000c3c <__vector_13>:
 * interrupt service routines *
 ******************************/

ISR(TIMER0_COMPA_vect)
// display interrupt
{
 c3c:	1f 92       	push	r1
 c3e:	0f 92       	push	r0
 c40:	0f b6       	in	r0, 0x3f	; 63
 c42:	0f 92       	push	r0
 c44:	11 24       	eor	r1, r1
 c46:	2f 93       	push	r18
 c48:	3f 93       	push	r19
 c4a:	4f 93       	push	r20
 c4c:	5f 93       	push	r21
 c4e:	6f 93       	push	r22
 c50:	7f 93       	push	r23
 c52:	8f 93       	push	r24
 c54:	9f 93       	push	r25
 c56:	af 93       	push	r26
 c58:	bf 93       	push	r27
 c5a:	ef 93       	push	r30
 c5c:	ff 93       	push	r31
	OCR0A += OCR0A_CYCLE_TIME;				// setup next cycle
 c5e:	86 b7       	in	r24, 0x36	; 54
 c60:	8c 5f       	subi	r24, 0xFC	; 252
 c62:	86 bf       	out	0x36, r24	; 54

	dmDisplay();							// show next column on dot matrix display
 c64:	10 de       	rcall	.-992    	; 0x886 <dmDisplay>
}
 c66:	ff 91       	pop	r31
 c68:	ef 91       	pop	r30
 c6a:	bf 91       	pop	r27
 c6c:	af 91       	pop	r26
 c6e:	9f 91       	pop	r25
 c70:	8f 91       	pop	r24
 c72:	7f 91       	pop	r23
 c74:	6f 91       	pop	r22
 c76:	5f 91       	pop	r21
 c78:	4f 91       	pop	r20
 c7a:	3f 91       	pop	r19
 c7c:	2f 91       	pop	r18
 c7e:	0f 90       	pop	r0
 c80:	0f be       	out	0x3f, r0	; 63
 c82:	0f 90       	pop	r0
 c84:	1f 90       	pop	r1
 c86:	18 95       	reti

00000c88 <__vector_14>:


ISR(TIMER0_COMPB_vect)
// system timer interrupt
{
 c88:	1f 92       	push	r1
 c8a:	0f 92       	push	r0
 c8c:	0f b6       	in	r0, 0x3f	; 63
 c8e:	0f 92       	push	r0
 c90:	11 24       	eor	r1, r1
 c92:	2f 93       	push	r18
 c94:	3f 93       	push	r19
 c96:	4f 93       	push	r20
 c98:	5f 93       	push	r21
 c9a:	6f 93       	push	r22
 c9c:	7f 93       	push	r23
 c9e:	8f 93       	push	r24
 ca0:	9f 93       	push	r25
 ca2:	af 93       	push	r26
 ca4:	bf 93       	push	r27
 ca6:	ef 93       	push	r30
 ca8:	ff 93       	push	r31
	static uint8_t scroll_timer = 1;
	static uint8_t pb_timer = 0;			// push button timer
	uint8_t temp;
		
	OCR0B += OCR0B_CYCLE_TIME;				// setup next cycle
 caa:	8c b7       	in	r24, 0x3c	; 60
 cac:	89 5d       	subi	r24, 0xD9	; 217
 cae:	8c bf       	out	0x3c, r24	; 60

	if (scroll_timer) {
 cb0:	80 91 66 00 	lds	r24, 0x0066
 cb4:	88 23       	and	r24, r24
 cb6:	21 f0       	breq	.+8      	; 0xcc0 <__vector_14+0x38>
		scroll_timer--;
 cb8:	81 50       	subi	r24, 0x01	; 1
 cba:	80 93 66 00 	sts	0x0066, r24
 cbe:	05 c0       	rjmp	.+10     	; 0xcca <__vector_14+0x42>
	}
	else {
		scroll_timer = scroll_speed;		// restart timer
 cc0:	80 91 65 00 	lds	r24, 0x0065
 cc4:	80 93 66 00 	sts	0x0066, r24
		dmScroll();							// do a scrolling step
 cc8:	4c de       	rcall	.-872    	; 0x962 <dmScroll>
	}
	
	// push button sampling
	temp = ~PB_PIN;							// sample push button
 cca:	80 b3       	in	r24, 0x10	; 16
	temp &= PB_MASK;						// extract push button state
	if (temp == 0) {						// --- button not pressed ---
 ccc:	86 ff       	sbrs	r24, 6
 cce:	08 c0       	rjmp	.+16     	; 0xce0 <__vector_14+0x58>
		if (button & PB_PRESS) {			// former state = pressed?
 cd0:	80 91 64 00 	lds	r24, 0x0064
 cd4:	80 ff       	sbrs	r24, 0
 cd6:	1c c0       	rjmp	.+56     	; 0xd10 <__vector_14+0x88>
			button &= ~(PB_PRESS | PB_ACK);	// -> issue release event
 cd8:	80 91 64 00 	lds	r24, 0x0064
 cdc:	8e 77       	andi	r24, 0x7E	; 126
 cde:	12 c0       	rjmp	.+36     	; 0xd04 <__vector_14+0x7c>
		}
	}
	else {									// --- button pressed ---
		if ((button & PB_PRESS) == 0) {		// former state = button released?
 ce0:	80 91 64 00 	lds	r24, 0x0064
 ce4:	80 fd       	sbrc	r24, 0
 ce6:	05 c0       	rjmp	.+10     	; 0xcf2 <__vector_14+0x6a>
			button = PB_PRESS;				// issue new press event
 ce8:	81 e0       	ldi	r24, 0x01	; 1
 cea:	80 93 64 00 	sts	0x0064, r24
			pb_timer = PB_LONGPRESS_DELAY;	// start push button timer
 cee:	84 e6       	ldi	r24, 0x64	; 100
 cf0:	0d c0       	rjmp	.+26     	; 0xd0c <__vector_14+0x84>
		}
		else {
			if (button == PB_PRESS) {		// holding key pressed
 cf2:	80 91 64 00 	lds	r24, 0x0064
 cf6:	81 30       	cpi	r24, 0x01	; 1
 cf8:	59 f4       	brne	.+22     	; 0xd10 <__vector_14+0x88>
				if (pb_timer == 0) {		// if push button timer has elapsed
 cfa:	80 91 68 00 	lds	r24, 0x0068
 cfe:	88 23       	and	r24, r24
 d00:	21 f4       	brne	.+8      	; 0xd0a <__vector_14+0x82>
					button = PB_LONGPRESS;	// issue long event
 d02:	83 e0       	ldi	r24, 0x03	; 3
 d04:	80 93 64 00 	sts	0x0064, r24
 d08:	03 c0       	rjmp	.+6      	; 0xd10 <__vector_14+0x88>
				}
				else {
					pb_timer--;
 d0a:	81 50       	subi	r24, 0x01	; 1
 d0c:	80 93 68 00 	sts	0x0068, r24
				}
			}			
		}		
	}
	
}
 d10:	ff 91       	pop	r31
 d12:	ef 91       	pop	r30
 d14:	bf 91       	pop	r27
 d16:	af 91       	pop	r26
 d18:	9f 91       	pop	r25
 d1a:	8f 91       	pop	r24
 d1c:	7f 91       	pop	r23
 d1e:	6f 91       	pop	r22
 d20:	5f 91       	pop	r21
 d22:	4f 91       	pop	r20
 d24:	3f 91       	pop	r19
 d26:	2f 91       	pop	r18
 d28:	0f 90       	pop	r0
 d2a:	0f be       	out	0x3f, r0	; 63
 d2c:	0f 90       	pop	r0
 d2e:	1f 90       	pop	r1
 d30:	18 95       	reti

00000d32 <__vector_20>:


ISR(PCINT_D_vect)
// pin change interrupt (for wake-up)
{
 d32:	1f 92       	push	r1
 d34:	0f 92       	push	r0
 d36:	0f b6       	in	r0, 0x3f	; 63
 d38:	0f 92       	push	r0
 d3a:	11 24       	eor	r1, r1
}
 d3c:	0f 90       	pop	r0
 d3e:	0f be       	out	0x3f, r0	; 63
 d40:	0f 90       	pop	r0
 d42:	1f 90       	pop	r1
 d44:	18 95       	reti

00000d46 <__vector_7>:



ISR(USART0_RX_vect)
{
 d46:	1f 92       	push	r1
 d48:	0f 92       	push	r0
 d4a:	0f b6       	in	r0, 0x3f	; 63
 d4c:	0f 92       	push	r0
 d4e:	11 24       	eor	r1, r1
 d50:	2f 93       	push	r18
 d52:	3f 93       	push	r19
 d54:	4f 93       	push	r20
 d56:	5f 93       	push	r21
 d58:	6f 93       	push	r22
 d5a:	7f 93       	push	r23
 d5c:	8f 93       	push	r24
 d5e:	9f 93       	push	r25
 d60:	af 93       	push	r26
 d62:	bf 93       	push	r27
 d64:	ef 93       	push	r30
 d66:	ff 93       	push	r31
	static uint8_t state = IDLE;
	static uint8_t val;
	uint8_t ch;

	ch = UDR;							// read received character
 d68:	6c b1       	in	r22, 0x0c	; 12
	if (ch == 27) { state = RESET; }	// <ESC> resets the state machine
 d6a:	6b 31       	cpi	r22, 0x1B	; 27
 d6c:	19 f4       	brne	.+6      	; 0xd74 <__vector_7+0x2e>
 d6e:	86 e0       	ldi	r24, 0x06	; 6
 d70:	80 93 69 00 	sts	0x0069, r24
	#ifdef ECHO_RXD			// only for debugging purposes
		dmClearDisplay();
		dmPrintChar(ch);
	#endif

	switch (state) {
 d74:	80 91 69 00 	lds	r24, 0x0069
 d78:	83 30       	cpi	r24, 0x03	; 3
 d7a:	09 f4       	brne	.+2      	; 0xd7e <__vector_7+0x38>
 d7c:	41 c0       	rjmp	.+130    	; 0xe00 <__vector_7+0xba>
 d7e:	84 30       	cpi	r24, 0x04	; 4
 d80:	28 f4       	brcc	.+10     	; 0xd8c <__vector_7+0x46>
 d82:	81 30       	cpi	r24, 0x01	; 1
 d84:	89 f0       	breq	.+34     	; 0xda8 <__vector_7+0x62>
 d86:	82 30       	cpi	r24, 0x02	; 2
 d88:	e0 f4       	brcc	.+56     	; 0xdc2 <__vector_7+0x7c>
 d8a:	09 c0       	rjmp	.+18     	; 0xd9e <__vector_7+0x58>
 d8c:	85 30       	cpi	r24, 0x05	; 5
 d8e:	81 f0       	breq	.+32     	; 0xdb0 <__vector_7+0x6a>
 d90:	85 30       	cpi	r24, 0x05	; 5
 d92:	08 f4       	brcc	.+2      	; 0xd96 <__vector_7+0x50>
 d94:	42 c0       	rjmp	.+132    	; 0xe1a <__vector_7+0xd4>
 d96:	86 30       	cpi	r24, 0x06	; 6
 d98:	09 f0       	breq	.+2      	; 0xd9c <__vector_7+0x56>
 d9a:	6f c0       	rjmp	.+222    	; 0xe7a <__vector_7+0x134>
 d9c:	5f c0       	rjmp	.+190    	; 0xe5c <__vector_7+0x116>
		case IDLE:
			if (ch == AUTH1_CHAR) { state = AUTH; }
 d9e:	68 34       	cpi	r22, 0x48	; 72
 da0:	09 f0       	breq	.+2      	; 0xda4 <__vector_7+0x5e>
 da2:	6b c0       	rjmp	.+214    	; 0xe7a <__vector_7+0x134>
 da4:	81 e0       	ldi	r24, 0x01	; 1
 da6:	4f c0       	rjmp	.+158    	; 0xe46 <__vector_7+0x100>
			break;
		case AUTH:
			if (ch == AUTH2_CHAR) { state = NORMAL; }
 da8:	6c 34       	cpi	r22, 0x4C	; 76
 daa:	09 f0       	breq	.+2      	; 0xdae <__vector_7+0x68>
 dac:	66 c0       	rjmp	.+204    	; 0xe7a <__vector_7+0x134>
 dae:	4a c0       	rjmp	.+148    	; 0xe44 <__vector_7+0xfe>
			break;
		case CRLF:
			if ((ch == 13) || (ch == 10)) { break; }	// chr(13) = <CR>, chr(10) = <LF>
 db0:	6d 30       	cpi	r22, 0x0D	; 13
 db2:	09 f4       	brne	.+2      	; 0xdb6 <__vector_7+0x70>
 db4:	62 c0       	rjmp	.+196    	; 0xe7a <__vector_7+0x134>
 db6:	6a 30       	cpi	r22, 0x0A	; 10
 db8:	09 f4       	brne	.+2      	; 0xdbc <__vector_7+0x76>
 dba:	5f c0       	rjmp	.+190    	; 0xe7a <__vector_7+0x134>
			state = NORMAL;
 dbc:	82 e0       	ldi	r24, 0x02	; 2
 dbe:	80 93 69 00 	sts	0x0069, r24
			// no break-> fall through to case NORMAL
		case NORMAL:
			if (ch == '^') { state = SPECIAL_CHAR; }
 dc2:	6e 35       	cpi	r22, 0x5E	; 94
 dc4:	11 f4       	brne	.+4      	; 0xdca <__vector_7+0x84>
 dc6:	83 e0       	ldi	r24, 0x03	; 3
 dc8:	3e c0       	rjmp	.+124    	; 0xe46 <__vector_7+0x100>
			else if (ch == '$') { val = 0;  state = HEX_CODE; }
 dca:	64 32       	cpi	r22, 0x24	; 36
 dcc:	21 f4       	brne	.+8      	; 0xdd6 <__vector_7+0x90>
 dce:	10 92 6a 00 	sts	0x006A, r1
 dd2:	84 e0       	ldi	r24, 0x04	; 4
 dd4:	38 c0       	rjmp	.+112    	; 0xe46 <__vector_7+0x100>
 dd6:	80 91 60 00 	lds	r24, 0x0060
 dda:	90 91 61 00 	lds	r25, 0x0061
			else if ((ch == 13) || (ch == 10)) {		// chr(13) = <CR>, chr(10) = <LF>
				eeprom_write_byte(ee_write_ptr++, 0);
 dde:	9c 01       	movw	r18, r24
 de0:	2f 5f       	subi	r18, 0xFF	; 255
 de2:	3f 4f       	sbci	r19, 0xFF	; 255
 de4:	30 93 61 00 	sts	0x0061, r19
 de8:	20 93 60 00 	sts	0x0060, r18
			state = NORMAL;
			// no break-> fall through to case NORMAL
		case NORMAL:
			if (ch == '^') { state = SPECIAL_CHAR; }
			else if (ch == '$') { val = 0;  state = HEX_CODE; }
			else if ((ch == 13) || (ch == 10)) {		// chr(13) = <CR>, chr(10) = <LF>
 dec:	6d 30       	cpi	r22, 0x0D	; 13
 dee:	11 f0       	breq	.+4      	; 0xdf4 <__vector_7+0xae>
 df0:	6a 30       	cpi	r22, 0x0A	; 10
 df2:	21 f4       	brne	.+8      	; 0xdfc <__vector_7+0xb6>
				eeprom_write_byte(ee_write_ptr++, 0);
 df4:	60 e0       	ldi	r22, 0x00	; 0
 df6:	c5 d0       	rcall	.+394    	; 0xf82 <__eewr_byte_tn4313>
				state = CRLF;
 df8:	85 e0       	ldi	r24, 0x05	; 5
 dfa:	25 c0       	rjmp	.+74     	; 0xe46 <__vector_7+0x100>
			}
			else { eeprom_write_byte(ee_write_ptr++, ch); }
 dfc:	c2 d0       	rcall	.+388    	; 0xf82 <__eewr_byte_tn4313>
 dfe:	3d c0       	rjmp	.+122    	; 0xe7a <__vector_7+0x134>
			break;
		case SPECIAL_CHAR:
			eeprom_write_byte(ee_write_ptr++, ch+63);
 e00:	80 91 60 00 	lds	r24, 0x0060
 e04:	90 91 61 00 	lds	r25, 0x0061
 e08:	9c 01       	movw	r18, r24
 e0a:	2f 5f       	subi	r18, 0xFF	; 255
 e0c:	3f 4f       	sbci	r19, 0xFF	; 255
 e0e:	30 93 61 00 	sts	0x0061, r19
 e12:	20 93 60 00 	sts	0x0060, r18
 e16:	61 5c       	subi	r22, 0xC1	; 193
 e18:	14 c0       	rjmp	.+40     	; 0xe42 <__vector_7+0xfc>
				dmPrintChar(ch+63);
			#endif
			state = NORMAL;
			break;
		case HEX_CODE:
			ch -= '0';
 e1a:	96 2f       	mov	r25, r22
 e1c:	90 53       	subi	r25, 0x30	; 48
			if (ch >= 17) { ch -= 7; }
 e1e:	91 31       	cpi	r25, 0x11	; 17
 e20:	08 f0       	brcs	.+2      	; 0xe24 <__vector_7+0xde>
 e22:	97 50       	subi	r25, 0x07	; 7
			if (ch > 15) {				// any character below '0' or above 'F' terminates hex input
 e24:	90 31       	cpi	r25, 0x10	; 16
 e26:	90 f0       	brcs	.+36     	; 0xe4c <__vector_7+0x106>
				eeprom_write_byte(ee_write_ptr++, val);
 e28:	80 91 60 00 	lds	r24, 0x0060
 e2c:	90 91 61 00 	lds	r25, 0x0061
 e30:	9c 01       	movw	r18, r24
 e32:	2f 5f       	subi	r18, 0xFF	; 255
 e34:	3f 4f       	sbci	r19, 0xFF	; 255
 e36:	30 93 61 00 	sts	0x0061, r19
 e3a:	20 93 60 00 	sts	0x0060, r18
 e3e:	60 91 6a 00 	lds	r22, 0x006A
 e42:	9f d0       	rcall	.+318    	; 0xf82 <__eewr_byte_tn4313>
				#ifdef ECHO_RXD				// only for debugging purposes
					dmClearDisplay();
					dmPrintByte(val>>4);	// print high nibble
					dmPrintByte(val & 0x0F);// print low  nibble
				#endif
				state = NORMAL;
 e44:	82 e0       	ldi	r24, 0x02	; 2
 e46:	80 93 69 00 	sts	0x0069, r24
 e4a:	17 c0       	rjmp	.+46     	; 0xe7a <__vector_7+0x134>
			}
			else { val <<= 4;  val += ch; }
 e4c:	80 91 6a 00 	lds	r24, 0x006A
 e50:	82 95       	swap	r24
 e52:	80 7f       	andi	r24, 0xF0	; 240
 e54:	89 0f       	add	r24, r25
 e56:	80 93 6a 00 	sts	0x006A, r24
 e5a:	0f c0       	rjmp	.+30     	; 0xe7a <__vector_7+0x134>
			break;
		case RESET:
			msg_ptr = (uint8_t*) messages;
 e5c:	80 e0       	ldi	r24, 0x00	; 0
 e5e:	90 e0       	ldi	r25, 0x00	; 0
 e60:	90 93 63 00 	sts	0x0063, r25
 e64:	80 93 62 00 	sts	0x0062, r24
			ee_write_ptr = (uint8_t*) messages;
 e68:	90 93 61 00 	sts	0x0061, r25
 e6c:	80 93 60 00 	sts	0x0060, r24
			dmClearDisplay();
 e70:	c4 dd       	rcall	.-1144   	; 0x9fa <dmClearDisplay>
			dmPrintChar(129);				// show logo
 e72:	81 e8       	ldi	r24, 0x81	; 129
 e74:	f7 dd       	rcall	.-1042   	; 0xa64 <dmPrintChar>
			state = IDLE;
 e76:	10 92 69 00 	sts	0x0069, r1
		break;
	}
}
 e7a:	ff 91       	pop	r31
 e7c:	ef 91       	pop	r30
 e7e:	bf 91       	pop	r27
 e80:	af 91       	pop	r26
 e82:	9f 91       	pop	r25
 e84:	8f 91       	pop	r24
 e86:	7f 91       	pop	r23
 e88:	6f 91       	pop	r22
 e8a:	5f 91       	pop	r21
 e8c:	4f 91       	pop	r20
 e8e:	3f 91       	pop	r19
 e90:	2f 91       	pop	r18
 e92:	0f 90       	pop	r0
 e94:	0f be       	out	0x3f, r0	; 63
 e96:	0f 90       	pop	r0
 e98:	1f 90       	pop	r1
 e9a:	18 95       	reti

00000e9c <main>:
 * main *
 ********/

int main(void)
{
	InitHardware();
 e9c:	27 de       	rcall	.-946    	; 0xaec <InitHardware>
	dmInit();
 e9e:	bc dd       	rcall	.-1160   	; 0xa18 <dmInit>
	sei();							// enable interrupts
 ea0:	78 94       	sei

	dmPrintChar(129);				// show logo
 ea2:	81 e8       	ldi	r24, 0x81	; 129
 ea4:	df dd       	rcall	.-1090   	; 0xa64 <dmPrintChar>
	#else
		//round up by default
		__ticks_dc = (uint32_t)(ceil(fabs(__tmp)));
	#endif

	__builtin_avr_delay_cycles(__ticks_dc);
 ea6:	8f ef       	ldi	r24, 0xFF	; 255
 ea8:	94 e3       	ldi	r25, 0x34	; 52
 eaa:	ac e0       	ldi	r26, 0x0C	; 12
 eac:	81 50       	subi	r24, 0x01	; 1
 eae:	90 40       	sbci	r25, 0x00	; 0
 eb0:	a0 40       	sbci	r26, 0x00	; 0
 eb2:	e1 f7       	brne	.-8      	; 0xeac <main+0x10>
 eb4:	00 c0       	rjmp	.+0      	; 0xeb6 <main+0x1a>
 eb6:	00 00       	nop
	_delay_ms(1000);
	msg_ptr = DisplayMessage(msg_ptr);
 eb8:	80 91 62 00 	lds	r24, 0x0062
 ebc:	90 91 63 00 	lds	r25, 0x0063
 ec0:	55 de       	rcall	.-854    	; 0xb6c <DisplayMessage>
 ec2:	90 93 63 00 	sts	0x0063, r25
 ec6:	80 93 62 00 	sts	0x0062, r24
			dmClearDisplay();
			dmPrintChar(130);				// sad smiley
			_delay_ms(500);
			dmClearDisplay();
			_delay_ms(1000);
			GIFR = (1<<PCIF2);				// clear interrupt flag
 eca:	c0 e1       	ldi	r28, 0x10	; 16
			PCMSK2 = (1<<PCINT17);			// enable pin change interrupt
 ecc:	d0 e4       	ldi	r29, 0x40	; 64
	_delay_ms(1000);
	msg_ptr = DisplayMessage(msg_ptr);

	while(1)
	{
		if (button == PB_RELEASE) {			// short button press
 ece:	80 91 64 00 	lds	r24, 0x0064
 ed2:	88 23       	and	r24, r24
 ed4:	71 f4       	brne	.+28     	; 0xef2 <main+0x56>
			msg_ptr = DisplayMessage(msg_ptr);
 ed6:	80 91 62 00 	lds	r24, 0x0062
 eda:	90 91 63 00 	lds	r25, 0x0063
 ede:	46 de       	rcall	.-884    	; 0xb6c <DisplayMessage>
 ee0:	90 93 63 00 	sts	0x0063, r25
 ee4:	80 93 62 00 	sts	0x0062, r24
			button |= PB_ACK;
 ee8:	80 91 64 00 	lds	r24, 0x0064
 eec:	80 68       	ori	r24, 0x80	; 128
 eee:	80 93 64 00 	sts	0x0064, r24
		}
		
		if (button == PB_LONGPRESS) {		// button pressed for some seconds
 ef2:	80 91 64 00 	lds	r24, 0x0064
 ef6:	83 30       	cpi	r24, 0x03	; 3
 ef8:	51 f7       	brne	.-44     	; 0xece <main+0x32>
			dmClearDisplay();
 efa:	7f dd       	rcall	.-1282   	; 0x9fa <dmClearDisplay>
			dmPrintChar(130);				// sad smiley
 efc:	82 e8       	ldi	r24, 0x82	; 130
 efe:	b2 dd       	rcall	.-1180   	; 0xa64 <dmPrintChar>
 f00:	8f e7       	ldi	r24, 0x7F	; 127
 f02:	9a e1       	ldi	r25, 0x1A	; 26
 f04:	a6 e0       	ldi	r26, 0x06	; 6
 f06:	81 50       	subi	r24, 0x01	; 1
 f08:	90 40       	sbci	r25, 0x00	; 0
 f0a:	a0 40       	sbci	r26, 0x00	; 0
 f0c:	e1 f7       	brne	.-8      	; 0xf06 <main+0x6a>
 f0e:	00 c0       	rjmp	.+0      	; 0xf10 <main+0x74>
 f10:	00 00       	nop
			_delay_ms(500);
			dmClearDisplay();
 f12:	73 dd       	rcall	.-1306   	; 0x9fa <dmClearDisplay>
 f14:	8f ef       	ldi	r24, 0xFF	; 255
 f16:	94 e3       	ldi	r25, 0x34	; 52
 f18:	ac e0       	ldi	r26, 0x0C	; 12
 f1a:	81 50       	subi	r24, 0x01	; 1
 f1c:	90 40       	sbci	r25, 0x00	; 0
 f1e:	a0 40       	sbci	r26, 0x00	; 0
 f20:	e1 f7       	brne	.-8      	; 0xf1a <main+0x7e>
 f22:	00 c0       	rjmp	.+0      	; 0xf24 <main+0x88>
 f24:	00 00       	nop
			_delay_ms(1000);
			GIFR = (1<<PCIF2);				// clear interrupt flag
 f26:	ca bf       	out	0x3a, r28	; 58
			PCMSK2 = (1<<PCINT17);			// enable pin change interrupt
 f28:	d5 b9       	out	0x05, r29	; 5
			GIMSK = (1<<PCIE2);				// enable pin change interrupt
 f2a:	cb bf       	out	0x3b, r28	; 59
			set_sleep_mode(SLEEP_MODE_PWR_DOWN);
 f2c:	85 b7       	in	r24, 0x35	; 53
 f2e:	80 65       	ori	r24, 0x50	; 80
 f30:	85 bf       	out	0x35, r24	; 53
			sleep_mode();
 f32:	85 b7       	in	r24, 0x35	; 53
 f34:	80 62       	ori	r24, 0x20	; 32
 f36:	85 bf       	out	0x35, r24	; 53
 f38:	88 95       	sleep
 f3a:	85 b7       	in	r24, 0x35	; 53
 f3c:	8f 7d       	andi	r24, 0xDF	; 223
 f3e:	85 bf       	out	0x35, r24	; 53
			GIMSK = 0;						// disable all external interrupts (including pin change)
 f40:	1b be       	out	0x3b, r1	; 59
			dmPrintChar(131);				// happy smiley
 f42:	83 e8       	ldi	r24, 0x83	; 131
 f44:	8f dd       	rcall	.-1250   	; 0xa64 <dmPrintChar>
 f46:	8f e7       	ldi	r24, 0x7F	; 127
 f48:	9a e1       	ldi	r25, 0x1A	; 26
 f4a:	a6 e0       	ldi	r26, 0x06	; 6
 f4c:	81 50       	subi	r24, 0x01	; 1
 f4e:	90 40       	sbci	r25, 0x00	; 0
 f50:	a0 40       	sbci	r26, 0x00	; 0
 f52:	e1 f7       	brne	.-8      	; 0xf4c <main+0xb0>
 f54:	00 c0       	rjmp	.+0      	; 0xf56 <main+0xba>
 f56:	00 00       	nop
			_delay_ms(500);
			msg_ptr = DisplayMessage((uint8_t*) messages);
 f58:	80 e0       	ldi	r24, 0x00	; 0
 f5a:	90 e0       	ldi	r25, 0x00	; 0
 f5c:	07 de       	rcall	.-1010   	; 0xb6c <DisplayMessage>
 f5e:	90 93 63 00 	sts	0x0063, r25
 f62:	80 93 62 00 	sts	0x0062, r24
			button |= PB_ACK;
 f66:	80 91 64 00 	lds	r24, 0x0064
 f6a:	80 68       	ori	r24, 0x80	; 128
 f6c:	80 93 64 00 	sts	0x0064, r24
 f70:	ae cf       	rjmp	.-164    	; 0xece <main+0x32>

00000f72 <__eerd_byte_tn4313>:
 f72:	e1 99       	sbic	0x1c, 1	; 28
 f74:	fe cf       	rjmp	.-4      	; 0xf72 <__eerd_byte_tn4313>
 f76:	1f ba       	out	0x1f, r1	; 31
 f78:	8e bb       	out	0x1e, r24	; 30
 f7a:	e0 9a       	sbi	0x1c, 0	; 28
 f7c:	99 27       	eor	r25, r25
 f7e:	8d b3       	in	r24, 0x1d	; 29
 f80:	08 95       	ret

00000f82 <__eewr_byte_tn4313>:
 f82:	26 2f       	mov	r18, r22

00000f84 <__eewr_r18_tn4313>:
 f84:	e1 99       	sbic	0x1c, 1	; 28
 f86:	fe cf       	rjmp	.-4      	; 0xf84 <__eewr_r18_tn4313>
 f88:	1c ba       	out	0x1c, r1	; 28
 f8a:	1f ba       	out	0x1f, r1	; 31
 f8c:	8e bb       	out	0x1e, r24	; 30
 f8e:	2d bb       	out	0x1d, r18	; 29
 f90:	0f b6       	in	r0, 0x3f	; 63
 f92:	f8 94       	cli
 f94:	e2 9a       	sbi	0x1c, 2	; 28
 f96:	e1 9a       	sbi	0x1c, 1	; 28
 f98:	0f be       	out	0x3f, r0	; 63
 f9a:	01 96       	adiw	r24, 0x01	; 1
 f9c:	08 95       	ret

00000f9e <_exit>:
 f9e:	f8 94       	cli

00000fa0 <__stop_program>:
 fa0:	ff cf       	rjmp	.-2      	; 0xfa0 <__stop_program>
