
Hacklace.elf:     file format elf32-avr

Sections:
Idx Name          Size      VMA       LMA       File off  Algn
  0 .text         00000fbc  00000000  00000000  000000d4  2**1
                  CONTENTS, ALLOC, LOAD, READONLY, CODE
  1 .data         00000006  00800060  00000fbc  00001090  2**0
                  CONTENTS, ALLOC, LOAD, DATA
  2 .bss          000000d3  00800066  00800066  00001096  2**0
                  ALLOC
  3 .eeprom       00000100  00810000  00810000  00001096  2**0
                  CONTENTS, ALLOC, LOAD, READONLY, DATA
  4 .fuse         00000003  00820000  00820000  00001196  2**0
                  CONTENTS, ALLOC, LOAD, DATA
  5 .stab         00000840  00000000  00000000  0000119c  2**2
                  CONTENTS, READONLY, DEBUGGING
  6 .stabstr      0000014b  00000000  00000000  000019dc  2**0
                  CONTENTS, READONLY, DEBUGGING
  7 .debug_aranges 000000a8  00000000  00000000  00001b28  2**3
                  CONTENTS, READONLY, DEBUGGING
  8 .debug_info   0000124a  00000000  00000000  00001bd0  2**0
                  CONTENTS, READONLY, DEBUGGING
  9 .debug_abbrev 00000527  00000000  00000000  00002e1a  2**0
                  CONTENTS, READONLY, DEBUGGING
 10 .debug_line   00000752  00000000  00000000  00003341  2**0
                  CONTENTS, READONLY, DEBUGGING
 11 .debug_frame  0000025c  00000000  00000000  00003a94  2**2
                  CONTENTS, READONLY, DEBUGGING
 12 .debug_str    000003a0  00000000  00000000  00003cf0  2**0
                  CONTENTS, READONLY, DEBUGGING
 13 .debug_loc    00000a1c  00000000  00000000  00004090  2**0
                  CONTENTS, READONLY, DEBUGGING
 14 .debug_ranges 00000030  00000000  00000000  00004aac  2**0
                  CONTENTS, READONLY, DEBUGGING

Disassembly of section .text:

00000000 <__vectors>:
   0:	2e c4       	rjmp	.+2140   	; 0x85e <__ctors_end>
   2:	48 c4       	rjmp	.+2192   	; 0x894 <__bad_interrupt>
   4:	47 c4       	rjmp	.+2190   	; 0x894 <__bad_interrupt>
   6:	46 c4       	rjmp	.+2188   	; 0x894 <__bad_interrupt>
   8:	45 c4       	rjmp	.+2186   	; 0x894 <__bad_interrupt>
   a:	44 c4       	rjmp	.+2184   	; 0x894 <__bad_interrupt>
   c:	43 c4       	rjmp	.+2182   	; 0x894 <__bad_interrupt>
   e:	d0 c6       	rjmp	.+3488   	; 0xdb0 <__vector_7>
  10:	41 c4       	rjmp	.+2178   	; 0x894 <__bad_interrupt>
  12:	40 c4       	rjmp	.+2176   	; 0x894 <__bad_interrupt>
  14:	3f c4       	rjmp	.+2174   	; 0x894 <__bad_interrupt>
  16:	3e c4       	rjmp	.+2172   	; 0x894 <__bad_interrupt>
  18:	3d c4       	rjmp	.+2170   	; 0x894 <__bad_interrupt>
  1a:	45 c6       	rjmp	.+3210   	; 0xca6 <__vector_13>
  1c:	6a c6       	rjmp	.+3284   	; 0xcf2 <__vector_14>
  1e:	3a c4       	rjmp	.+2164   	; 0x894 <__bad_interrupt>
  20:	39 c4       	rjmp	.+2162   	; 0x894 <__bad_interrupt>
  22:	38 c4       	rjmp	.+2160   	; 0x894 <__bad_interrupt>
  24:	37 c4       	rjmp	.+2158   	; 0x894 <__bad_interrupt>
  26:	36 c4       	rjmp	.+2156   	; 0x894 <__bad_interrupt>
  28:	b9 c6       	rjmp	.+3442   	; 0xd9c <__vector_20>
  2a:	ed c6       	rjmp	.+3546   	; 0xe06 <__vector_7+0x56>
  2c:	f1 c6       	rjmp	.+3554   	; 0xe10 <__vector_7+0x60>
  2e:	f7 c6       	rjmp	.+3566   	; 0xe1e <__vector_7+0x6e>
  30:	06 c7       	rjmp	.+3596   	; 0xe3e <__vector_7+0x8e>
  32:	0a c7       	rjmp	.+3604   	; 0xe48 <__vector_7+0x98>
  34:	14 c7       	rjmp	.+3624   	; 0xe5e <__vector_7+0xae>
  36:	3e c7       	rjmp	.+3708   	; 0xeb4 <__vector_7+0x104>
  38:	4b c7       	rjmp	.+3734   	; 0xed0 <__vector_7+0x120>

0000003a <row_bit>:
  3a:	02 04 08 10 01 02 02                                .......

00000041 <row_port>:
  41:	01 01 02 01 00 00 02                                .......

00000048 <col_bit>:
  48:	10 04 08 40 20                                      ...@ 

0000004d <col_port>:
  4d:	02 02 01 01 01                                      .....

00000052 <font>:
  52:	00 00 00 80 80 5f 80 80 80 80 03 00 03 80 80 14     ....._..........
  62:	7f 14 7f 14 24 2a 7f 2a 12 23 13 08 64 62 36 49     ....$*.*.#..db6I
  72:	56 20 50 05 03 80 80 80 1c 22 41 80 80 41 22 1c     V P......"A..A".
  82:	80 80 22 14 6b 14 22 08 08 3e 08 08 50 30 80 80     ..".k."..>..P0..
  92:	80 08 08 08 08 80 60 60 80 80 80 60 10 08 04 03     ......``...`....
  a2:	3e 41 41 3e 80 42 7f 40 80 80 62 51 49 46 80 22     >AA>.B.@..bQIF."
  b2:	41 49 36 80 18 14 12 7f 80 27 45 45 39 80 3c 4a     AI6......'EE9.<J
  c2:	49 31 80 01 71 0d 03 80 36 49 49 36 80 06 49 29     I1..q...6II6..I)
  d2:	1e 80 36 36 80 80 80 56 36 80 80 80 08 14 22 41     ..66...V6....."A
  e2:	80 14 14 14 14 80 41 22 14 08 80 02 51 09 06 80     ......A"....Q...
  f2:	32 49 79 41 3e 7e 09 09 7e 80 7f 49 49 36 80 3e     2IyA>~..~..II6.>
 102:	41 41 22 80 7f 41 41 3e 80 7f 49 49 41 80 7f 09     AA"..AA>..IIA...
 112:	09 01 80 3e 49 49 3a 80 7f 08 08 7f 80 41 7f 41     ...>II:......A.A
 122:	80 80 20 40 40 3f 80 7f 08 14 63 80 7f 40 40 40     .. @@?....c..@@@
 132:	80 7f 02 0c 02 7f 7f 06 18 7f 80 3e 41 41 3e 80     ...........>AA>.
 142:	7f 09 09 06 80 3e 41 21 5e 80 7f 09 19 66 80 26     .....>A!^....f.&
 152:	49 49 32 80 01 01 7f 01 01 3f 40 40 3f 80 07 18     II2......?@@?...
 162:	60 18 07 3f 40 38 40 3f 63 14 08 14 63 03 04 78     `..?@8@?c...c..x
 172:	04 03 61 59 45 43 80 7f 41 41 80 80 03 04 08 10     ..aYEC..AA......
 182:	60 41 41 7f 80 80 02 01 02 80 80 40 40 40 40 80     `AA........@@@@.
 192:	03 04 80 80 80 20 54 54 78 80 7f 48 48 30 80 38     ..... TTx..HH0.8
 1a2:	44 44 28 80 38 44 44 7f 80 38 54 54 48 80 04 7e     DD(.8DD..8TTH..~
 1b2:	05 01 80 48 54 54 38 80 7f 08 08 70 80 7a 80 80     ...HTT8....p.z..
 1c2:	80 80 20 40 3a 80 80 7f 08 14 62 80 41 7f 40 80     .. @:.....b.A.@.
 1d2:	80 7c 04 78 04 78 7c 04 04 78 80 38 44 44 38 80     .|.x.x|..x.8DD8.
 1e2:	7c 24 24 18 80 18 24 24 7c 80 78 04 04 80 80 48     |$$...$$|.x....H
 1f2:	54 54 24 80 04 3f 44 44 80 3c 40 40 7c 80 0c 30     TT$..?DD.<@@|..0
 202:	40 30 8c 3c 40 30 40 3c 44 28 10 28 44 4c 50 50     @0.<@0@<D(.(DLPP
 212:	3c 80 64 54 4c 44 80 08 36 41 80 80 7f 80 80 80     <.dTLD..6A......
 222:	80 41 36 08 80 80 08 04 08 10 08 80 80 80 80 80     .A6.............
 232:	1c 2a 49 49 22 1f 04 7f 40 40 20 12 10 12 20 10     .*II"...@@ ... .
 242:	22 20 22 10 21 54 54 79 80 79 14 14 79 80 39 44     " ".!TTy.y..y.9D
 252:	44 39 80 39 44 44 39 80 3d 40 40 7d 80 3d 40 40     D9.9DD9.=@@}.=@@
 262:	3d 80 7e 25 25 1a 80 6c 1a 6f 1a 6c 7d 5a 1e 5a     =.~%%..l.o.l}Z.Z
 272:	7d 4e 7b 0f 7b 4e 7c 3a 7e 3a 7c 1c 76 2e 76 1c     }N{.{N|:~:|.v.v.
 282:	1e 34 7c 34 1e 0c 12 24 12 0c 08 1c 3e 7f 80 7f     .4|4...$....>...
 292:	3e 1c 08 80 30 3f 01 62 7e 30 3f 02 80 80 1e 3d     >...0?.b~0?....=
 2a2:	77 73 31 60 7e 7b 7e 60 20 5f 23 80 80 7e 7a 7a     ws1`~{~` _#..~zz
 2b2:	7f 80 03 45 79 45 03 10 28 24 28 10 08 14 2a 14     ...EyE..($(...*.
 2c2:	08 00 00 00 00 00 36 36 08 36 36 1e 14 3c 28 78     ......66.66..<(x
 2d2:	44 24 1d 24 44 42 24 1d 62 01 08 65 1c 22 41 46     D$.$DB$.b..e."AF
 2e2:	24 1d 24 4c 08 44 3d 44 08 4c 24 1d 24 46 01 62     $.$L.D=D.L$.$F.b
 2f2:	1d 62 01 42 24 1d 24 42 7c 46 57 46 7c 7f 2a 2a     .b.B$.$B|FWF|.**
 302:	7f 80 2a 7f 41 7f 2a 0a 00 55 00 0a 30 48 4d 33     ..*.A.*..U..0HM3
 312:	07 06 29 79 29 06 08 1c 2a 08 08 08 08 2a 1c 08     ..)y)...*....*..

00000322 <animation>:
 322:	fc 07 97 07 6e 07 5c 07 01 07 f1 06 cd 06 b8 06     ....n.\.........
 332:	ad 06 02 06 a2 05 88 05 23 05 fa 04 a9 04 6c 04     ........#.....l.
 342:	07 04 d4 03 b5 03 96 03 6d 03 4e 03                 ........m.N.

0000034e <lady>:
 34e:	40 40 58 64 68 64 68 70 48 44 4c 48 48 48 48 48     @@XdhdhpHDLHHHHH
 35e:	44 42 71 49 52 64 68 70 70 58 40 40 40 40 ff        DBqIRdhppX@@@@.

0000036d <clock>:
 36d:	1c 22 2e 2a 1c 1c 22 2a 2e 1c 1c 22 2a 2a 1c 1c     .".*.."*..."**..
 37d:	22 2a 3a 1c 1c 22 3a 2a 1c 1c 32 2a 2a 1c 1c 2a     "*:..":*..2**..*
 38d:	2a 2a 1c 1c 26 2a 2a 1c ff                          **..&**..

00000396 <tv_off>:
 396:	7f 7f 7f 7f 7f 1c 1c 1c 1c 1c 08 08 08 08 08 08     ................
 3a6:	08 08 08 08 00 08 08 08 00 00 00 08 00 00 ff        ...............

000003b5 <psycho>:
 3b5:	1c 3e 77 3e 1c 3e 77 63 77 3e 77 63 41 63 77 63     .>w>.>wcw>wcAcwc
 3c5:	41 08 41 63 41 08 1c 08 41 08 1c 3e 1c 08 ff        A.AcA...A..>...

000003d4 <droplet>:
 3d4:	40 40 41 40 40 40 40 43 40 40 40 40 45 40 40 40     @@A@@@@C@@@@E@@@
 3e4:	40 49 40 40 40 40 51 40 40 40 40 21 40 40 40 40     @I@@@@Q@@@@!@@@@
 3f4:	51 40 40 40 48 41 48 40 48 40 41 40 48 40 40 41     Q@@@HAH@H@A@H@@A
 404:	40 40 ff                                            @@.

00000407 <explode>:
 407:	00 02 7d 00 00 00 01 7c 02 00 00 00 7a 00 00 00     ..}....|....z...
 417:	08 72 04 00 00 08 60 10 00 00 10 68 00 00 00 20     .r....`....h... 
 427:	40 10 00 00 00 20 00 00 00 00 00 00 00 00 00 00     @.... ..........
	...
 43f:	00 30 00 00 00 7c 54 38 00 79 3d 24 3d 79 7b 3f     .0...|T8.y=$=y{?
 44f:	16 3f 7b 7e 7c 18 7c 7e 7c 08 10 08 7c 70 08 10     .?{~|.|~|...|p..
 45f:	08 70 60 08 20 10 60 10 40 00 20 00 ff              .p`. .`.@. ..

0000046c <train>:
 46c:	3f 67 64 24 66 66 24 6f 69 69 3f 01 00 3c 64 66     ?gd$ff$oii?..<df
 47c:	27 67 66 3c 00 00 21 3f 69 69 2f 29 29 2f 69 69     'gf<..!?ii/))/ii
 48c:	3f 21 00 00 20 3e 62 62 23 23 23 62 62 3e 20 00     ?!.. >bb###bb> .
 49c:	00 3c 64 7c 24 3c 24 3c 24 7c 64 3c ff              .<d|$<$<$|d<.

000004a9 <rocket>:
 4a9:	40 3c 43 3c 40 40 7c 43 7c 40 40 3c 43 3c 40 40     @<C<@@|C|@@<C<@@
 4b9:	7c 43 7c 40 40 3c 43 3c 40 40 7c 43 7c 40 20 5e     |C|@@<C<@@|C|@ ^
 4c9:	21 5e 20 10 6f 10 6f 10 08 77 08 77 08 04 7b 04     !^ .o.o..w.w..{.
 4d9:	7b 04 02 75 02 75 02 01 68 01 68 01 20 50 20 50     {..u.u..h.h. P P
 4e9:	20 40 10 20 00 40 20 00 40 00 40 40 00 40 00 00      @. .@ .@.@@.@..
 4f9:	ff                                                  .

000004fa <house>:
 4fa:	40 40 40 40 40 40 60 50 48 44 44 64 54 4c 44 44     @@@@@@`PHDDdTLDD
 50a:	6c 54 6c 44 44 6c 54 6c 7c 44 6c 55 6e 7c 44 6e     lTlDDlTl|DlUn|Dn
 51a:	55 6e 7c 7c 6e 55 6e 7c ff                          Un||nUn|.

00000523 <pong>:
 523:	40 40 09 01 00 00 45 41 00 00 03 01 40 40 00 05     @@....EA....@@..
 533:	01 40 40 00 09 41 40 00 00 50 41 01 00 00 60 41     .@@..A@..PA...`A
 543:	01 00 00 40 51 01 00 00 00 41 51 00 00 00 00 41     ...@Q....AQ....A
 553:	49 00 00 00 41 41 08 00 00 40 45 01 00 00 05 41     I...AA...@E....A
 563:	40 00 03 01 40 40 01 05 00 40 40 00 09 01 40 40     @...@@...@@...@@
 573:	00 10 01 41 40 00 20 41 41 00 00 40 41 41 00 00     ...A@. AA..@AA..
 583:	40 41 01 00 ff                                      @A...

00000588 <hop>:
 588:	20 50 50 20 00 30 48 48 30 00 06 09 09 06 00 01      PP .0HH0.......
 598:	02 02 01 00 00 01 01 00 00 ff                       ..........

000005a2 <glider>:
 5a2:	03 00 00 00 00 03 00 00 00 00 07 00 00 00 00 06     ................
 5b2:	02 00 00 00 05 06 00 00 00 0c 06 00 00 00 08 0e     ................
 5c2:	00 00 00 0a 0c 04 00 00 08 0a 0c 00 00 04 18 0c     ................
 5d2:	00 00 08 10 1c 00 00 00 14 18 08 00 00 10 14 18     ................
 5e2:	00 00 08 30 18 00 00 10 20 38 00 00 00 28 30 10     ...0.... 8...(0.
 5f2:	00 00 20 28 30 00 00 00 00 00 00 00 20 28 30 ff     .. (0....... (0.

00000602 <tetris>:
 602:	00 00 07 00 00 00 00 0e 00 00 00 08 08 08 00 10     ................
 612:	10 10 00 00 20 20 20 00 00 40 43 43 00 00 40 46     ....   ..@CC..@F
 622:	46 00 00 40 40 4c 0c 00 40 40 40 18 18 40 40 40     F..@@L..@@@..@@@
 632:	60 60 00 00 00 20 20 40 40 40 60 60 00 01 07 44     ``...  @@@``...D
 642:	40 00 02 0e 48 40 00 18 08 4c 40 30 10 18 40 40     @...H@...L@0..@@
 652:	60 20 30 40 40 60 27 34 40 40 7e 30 30 40 40 7e     ` 0@@`'4@@~00@@~
 662:	31 33 40 40 7e 32 36 40 40 7e 30 36 44 40 7e 30     13@@~26@@~06D@~0
 672:	30 4c 48 7e 30 30 50 58 7e 30 30 60 70 5e 10 10     0LH~00PX~00`p^..
 682:	40 50 7e 30 30 60 70 7c 20 20 40 60 7c 21 27 44     @P~00`p|  @`|!'D
 692:	60 7c 22 2e 48 60 7c 38 28 4c 60 7c 3b 2b 4c 60     `|".H`|8(L`|;+L`
 6a2:	7c 3e 2e 4c 60 7c 3f 2f 4d 60 ff                    |>.L`|?/M`.

000006ad <checkers>:
 6ad:	55 2a 55 2a 55 2a 55 2a 55 2a ff                    U*U*U*U*U*.

000006b8 <ecg>:
 6b8:	10 10 10 10 10 08 10 10 0f 70 10 10 08 08 10 10     .........p......
 6c8:	10 10 10 10 ff                                      .....

000006cd <wink>:
 6cd:	00 26 20 26 00 00 26 20 26 00 00 26 20 26 00 00     .& &..& &..& &..
 6dd:	26 20 24 00 00 26 20 26 00 00 26 20 26 00 10 26     & $..& &..& &..&
 6ed:	20 26 10 ff                                          &..

000006f1 <tunnel>:
 6f1:	00 00 1c 00 00 00 3e 22 3e 00 7f 41 41 41 7f ff     ......>">..AAA..

00000701 <snow>:
 701:	01 00 00 00 00 02 00 01 00 00 04 00 02 00 00 08     ................
 711:	01 04 00 01 10 02 08 00 02 20 04 11 00 04 41 08     ......... ....A.
 721:	22 00 08 42 10 44 01 10 45 20 48 02 20 4a 40 50     "..B.D..E H. J@P
 731:	04 41 54 40 60 08 42 68 41 60 11 44 70 42 60 22     .AT@`.BhA`.DpB`"
 741:	48 70 44 60 45 50 70 48 60 4a 50 70 50 60 54 60     HpD`EPpH`JPpP`T`
 751:	70 60 60 68 60 70 60 60 70 60 ff                    p``h`p``p`.

0000075c <mountainrange>:
 75c:	08 44 28 10 08 04 02 04 08 50 30 10 08 04 04 02     .D(......P0.....
 76c:	01 ff                                               ..

0000076e <bounce>:
 76e:	01 00 00 00 00 02 02 01 00 00 06 09 09 06 00 00     ................
 77e:	30 48 48 30 00 20 50 50 20 00 30 48 48 30 00 00     0HH0. PP .0HH0..
 78e:	06 09 09 00 00 00 01 02 ff                          .........

00000797 <fire>:
 797:	78 5c 68 78 71 7c 38 74 7c 7a 78 50 62 62 78 7c     x\hxq|8t|zxPbbx|
 7a7:	60 61 70 68 7a 60 30 78 74 70 79 70 52 69 60 7c     `aphz`0xtpypRi`|
 7b7:	68 70 61 50 66 70 78 20 68 71 60 72 50 74 79 70     hpaPfpx hq`rPtyp
 7c7:	62 68 72 70 30 61 74 61 78 50 70 7a 74 31 40 68     bhrp0ataxPpzt1@h
 7d7:	44 10 68 70 34 60 28 4a 60 58 60 60 70 38 66 18     D.hp4`(J`X``p8f.
 7e7:	60 70 78 42 19 58 64 70 29 70 70 3a 78 54 70 70     `pxB.Xdp)pp:xTpp
 7f7:	51 78 6a 70 ff                                      Qxjp.

000007fc <arrow>:
 7fc:	14 2a 49 49 3e 00 1c 2a 49 3e 00 3e 49 3e 08 7f     .*II>..*I>.>I>..
 80c:	2a 1c 08 08 22 1c 08 08 08 1c 00 08 08 08 00 08     *..."...........
 81c:	08 08 08 08 08 08 08 00 08 08 08 00 00 08 08 00     ................
 82c:	00 00 08 00 00 00 00 00 00 00 00 0c 00 00 00 0c     ................
 83c:	12 00 00 0c 12 24 00 0c 12 24 12 0c 12 24 12 0c     .....$...$...$..
 84c:	ff                                                  .

0000084d <spd_conv>:
 84d:	32 1e 12 0b 07 05 03 02                             2.......

00000855 <dly_conv>:
 855:	00 01 02 03 05 08 0d 15 00                          .........

0000085e <__ctors_end>:
 85e:	11 24       	eor	r1, r1
 860:	1f be       	out	0x3f, r1	; 63
 862:	cf e5       	ldi	r28, 0x5F	; 95
 864:	d1 e0       	ldi	r29, 0x01	; 1
 866:	de bf       	out	0x3e, r29	; 62
 868:	cd bf       	out	0x3d, r28	; 61

0000086a <__do_copy_data>:
 86a:	10 e0       	ldi	r17, 0x00	; 0
 86c:	a0 e6       	ldi	r26, 0x60	; 96
 86e:	b0 e0       	ldi	r27, 0x00	; 0
 870:	ec eb       	ldi	r30, 0xBC	; 188
 872:	ff e0       	ldi	r31, 0x0F	; 15
 874:	02 c0       	rjmp	.+4      	; 0x87a <__do_copy_data+0x10>
 876:	05 90       	lpm	r0, Z+
 878:	0d 92       	st	X+, r0
 87a:	a6 36       	cpi	r26, 0x66	; 102
 87c:	b1 07       	cpc	r27, r17
 87e:	d9 f7       	brne	.-10     	; 0x876 <__do_copy_data+0xc>

00000880 <__do_clear_bss>:
 880:	11 e0       	ldi	r17, 0x01	; 1
 882:	a6 e6       	ldi	r26, 0x66	; 102
 884:	b0 e0       	ldi	r27, 0x00	; 0
 886:	01 c0       	rjmp	.+2      	; 0x88a <.do_clear_bss_start>

00000888 <.do_clear_bss_loop>:
 888:	1d 92       	st	X+, r1

0000088a <.do_clear_bss_start>:
 88a:	a9 33       	cpi	r26, 0x39	; 57
 88c:	b1 07       	cpc	r27, r17
 88e:	e1 f7       	brne	.-8      	; 0x888 <.do_clear_bss_loop>
 890:	51 d3       	rcall	.+1698   	; 0xf34 <main>
 892:	92 c3       	rjmp	.+1828   	; 0xfb8 <_exit>

00000894 <__bad_interrupt>:
 894:	b5 cb       	rjmp	.-2198   	; 0x0 <__vectors>

00000896 <dmDisplay>:
	Output:			none
	Description:	Switch to the next display column and display it on the led matrix.
					Call this function periodically, e. g. within an interrupt routine.
======================================================================*/
void dmDisplay(void)
{
 896:	cf 93       	push	r28
 898:	df 93       	push	r29
 89a:	cd b7       	in	r28, 0x3d	; 61
 89c:	de b7       	in	r29, 0x3e	; 62
 89e:	c3 50       	subi	r28, 0x03	; 3
 8a0:	cd bf       	out	0x3d, r28	; 61
	if (display.curr_col >= DISP_COLUMNS) {
 8a2:	80 91 32 01 	lds	r24, 0x0132
 8a6:	85 30       	cpi	r24, 0x05	; 5
 8a8:	18 f0       	brcs	.+6      	; 0x8b0 <dmDisplay+0x1a>
		display.curr_col = 0;
 8aa:	10 92 32 01 	sts	0x0132, r1
 8ae:	03 c0       	rjmp	.+6      	; 0x8b6 <dmDisplay+0x20>
	}
	else {
		display.curr_col++;
 8b0:	8f 5f       	subi	r24, 0xFF	; 255
 8b2:	80 93 32 01 	sts	0x0132, r24
	}
	dmSetOutputs(display.curr_col, display.memory[display.base + display.curr_col]);
 8b6:	20 91 32 01 	lds	r18, 0x0132
 8ba:	e0 91 31 01 	lds	r30, 0x0131
 8be:	f0 e0       	ldi	r31, 0x00	; 0
 8c0:	e7 59       	subi	r30, 0x97	; 151
 8c2:	ff 4f       	sbci	r31, 0xFF	; 255
 8c4:	e2 0f       	add	r30, r18
 8c6:	f1 1d       	adc	r31, r1
 8c8:	30 81       	ld	r19, Z
inline void dmSetOutputs(uint8_t col, uint8_t pattern)
{
	uint8_t i;
	uint8_t p[3];

	p[0] = 0;  p[1] = 0;  p[2] = 0;
 8ca:	19 82       	std	Y+1, r1	; 0x01
 8cc:	1a 82       	std	Y+2, r1	; 0x02
 8ce:	1b 82       	std	Y+3, r1	; 0x03
 8d0:	80 e0       	ldi	r24, 0x00	; 0
 8d2:	90 e0       	ldi	r25, 0x00	; 0
	for (i = 0; i < DISP_ROWS; i++) {
		if (BIT_IS_ON) {
 8d4:	30 ff       	sbrs	r19, 0
 8d6:	11 c0       	rjmp	.+34     	; 0x8fa <dmDisplay+0x64>
			p[ pgm_read_byte(&row_port[i]) ] |= pgm_read_byte(&row_bit[i]);		// set bit
 8d8:	fc 01       	movw	r30, r24
 8da:	ef 5b       	subi	r30, 0xBF	; 191
 8dc:	ff 4f       	sbci	r31, 0xFF	; 255
 8de:	44 91       	lpm	r20, Z
 8e0:	fc 01       	movw	r30, r24
 8e2:	e6 5c       	subi	r30, 0xC6	; 198
 8e4:	ff 4f       	sbci	r31, 0xFF	; 255
 8e6:	e4 91       	lpm	r30, Z
 8e8:	a1 e0       	ldi	r26, 0x01	; 1
 8ea:	b0 e0       	ldi	r27, 0x00	; 0
 8ec:	ac 0f       	add	r26, r28
 8ee:	bd 1f       	adc	r27, r29
 8f0:	a4 0f       	add	r26, r20
 8f2:	b1 1d       	adc	r27, r1
 8f4:	4c 91       	ld	r20, X
 8f6:	4e 2b       	or	r20, r30
 8f8:	4c 93       	st	X, r20
		}
		NEXT_BIT;
 8fa:	36 95       	lsr	r19
 8fc:	01 96       	adiw	r24, 0x01	; 1
{
	uint8_t i;
	uint8_t p[3];

	p[0] = 0;  p[1] = 0;  p[2] = 0;
	for (i = 0; i < DISP_ROWS; i++) {
 8fe:	87 30       	cpi	r24, 0x07	; 7
 900:	91 05       	cpc	r25, r1
 902:	41 f7       	brne	.-48     	; 0x8d4 <dmDisplay+0x3e>
 904:	80 e0       	ldi	r24, 0x00	; 0
 906:	90 e0       	ldi	r25, 0x00	; 0
			p[ pgm_read_byte(&row_port[i]) ] |= pgm_read_byte(&row_bit[i]);		// set bit
		}
		NEXT_BIT;
	}		
	for (i = 0; i < DISP_COLUMNS; i++) {
		if (i != COL) {					// note: COL is a macro
 908:	28 17       	cp	r18, r24
 90a:	89 f0       	breq	.+34     	; 0x92e <dmDisplay+0x98>
			p[ pgm_read_byte(&col_port[i]) ] |= pgm_read_byte(&col_bit[i]);		// set bit
 90c:	fc 01       	movw	r30, r24
 90e:	e3 5b       	subi	r30, 0xB3	; 179
 910:	ff 4f       	sbci	r31, 0xFF	; 255
 912:	34 91       	lpm	r19, Z
 914:	fc 01       	movw	r30, r24
 916:	e8 5b       	subi	r30, 0xB8	; 184
 918:	ff 4f       	sbci	r31, 0xFF	; 255
 91a:	e4 91       	lpm	r30, Z
 91c:	a1 e0       	ldi	r26, 0x01	; 1
 91e:	b0 e0       	ldi	r27, 0x00	; 0
 920:	ac 0f       	add	r26, r28
 922:	bd 1f       	adc	r27, r29
 924:	a3 0f       	add	r26, r19
 926:	b1 1d       	adc	r27, r1
 928:	3c 91       	ld	r19, X
 92a:	3e 2b       	or	r19, r30
 92c:	3c 93       	st	X, r19
 92e:	01 96       	adiw	r24, 0x01	; 1
		if (BIT_IS_ON) {
			p[ pgm_read_byte(&row_port[i]) ] |= pgm_read_byte(&row_bit[i]);		// set bit
		}
		NEXT_BIT;
	}		
	for (i = 0; i < DISP_COLUMNS; i++) {
 930:	85 30       	cpi	r24, 0x05	; 5
 932:	91 05       	cpc	r25, r1
 934:	49 f7       	brne	.-46     	; 0x908 <dmDisplay+0x72>
		if (i != COL) {					// note: COL is a macro
			p[ pgm_read_byte(&col_port[i]) ] |= pgm_read_byte(&col_bit[i]);		// set bit
		}
	}
	#if DISP_TYPE == 1					// if we use a display with common column anode
		p[0] ^= DISP_MASK_A;				// -> invert outputs
 936:	99 81       	ldd	r25, Y+1	; 0x01
 938:	83 e0       	ldi	r24, 0x03	; 3
 93a:	98 27       	eor	r25, r24
		p[1] ^= DISP_MASK_B;
 93c:	8a 81       	ldd	r24, Y+2	; 0x02
 93e:	2e e7       	ldi	r18, 0x7E	; 126
 940:	82 27       	eor	r24, r18
 942:	8a 83       	std	Y+2, r24	; 0x02
		p[2] ^= DISP_MASK_D;
 944:	8b 81       	ldd	r24, Y+3	; 0x03
 946:	2e e1       	ldi	r18, 0x1E	; 30
 948:	82 27       	eor	r24, r18
 94a:	8b 83       	std	Y+3, r24	; 0x03
	#endif

	// set outputs
	i = PORTA & ~DISP_MASK_A;
 94c:	8b b3       	in	r24, 0x1b	; 27
 94e:	8c 7f       	andi	r24, 0xFC	; 252
	PORTA = i | p[0];
 950:	89 2b       	or	r24, r25
 952:	8b bb       	out	0x1b, r24	; 27
	i = PORTB & ~DISP_MASK_B;
 954:	88 b3       	in	r24, 0x18	; 24
 956:	81 78       	andi	r24, 0x81	; 129
	PORTB = i | p[1];
 958:	9a 81       	ldd	r25, Y+2	; 0x02
 95a:	89 2b       	or	r24, r25
 95c:	88 bb       	out	0x18, r24	; 24
	i = PORTD & ~DISP_MASK_D;
 95e:	82 b3       	in	r24, 0x12	; 18
 960:	81 7e       	andi	r24, 0xE1	; 225
	PORTD = i | p[2];
 962:	9b 81       	ldd	r25, Y+3	; 0x03
 964:	89 2b       	or	r24, r25
 966:	82 bb       	out	0x12, r24	; 18
	}
	else {
		display.curr_col++;
	}
	dmSetOutputs(display.curr_col, display.memory[display.base + display.curr_col]);
}
 968:	cd 5f       	subi	r28, 0xFD	; 253
 96a:	cd bf       	out	0x3d, r28	; 61
 96c:	df 91       	pop	r29
 96e:	cf 91       	pop	r28
 970:	08 95       	ret

00000972 <dmScroll>:
======================================================================*/
uint8_t dmScroll(void)
{
	uint8_t temp, mode;

	mode = display.scroll_mode;
 972:	f0 91 33 01 	lds	r31, 0x0133
	temp = mode & 0x0F;										// extract increment
 976:	8f 2f       	mov	r24, r31
 978:	8f 70       	andi	r24, 0x0F	; 15
	if (mode & 0x10)	{ temp = display.base - temp; }		// scrolling backward
 97a:	4f 2f       	mov	r20, r31
 97c:	50 e0       	ldi	r21, 0x00	; 0
 97e:	ba 01       	movw	r22, r20
 980:	60 71       	andi	r22, 0x10	; 16
 982:	70 70       	andi	r23, 0x00	; 0
 984:	e0 91 31 01 	lds	r30, 0x0131
 988:	f4 ff       	sbrs	r31, 4
 98a:	02 c0       	rjmp	.+4      	; 0x990 <dmScroll+0x1e>
 98c:	e8 1b       	sub	r30, r24
 98e:	01 c0       	rjmp	.+2      	; 0x992 <dmScroll+0x20>
															// We use a dirty trick here:
															// Temp may underflow at left end of display memory.
	else				{ temp = display.base + temp; }		// scrolling forward
 990:	e8 0f       	add	r30, r24

	if ((temp + DISP_COLUMNS) > display.cursor ) {			// end of scrolling range reached?
 992:	a0 91 34 01 	lds	r26, 0x0134
 996:	8e 2f       	mov	r24, r30
 998:	90 e0       	ldi	r25, 0x00	; 0
 99a:	04 96       	adiw	r24, 0x04	; 4
 99c:	2a 2f       	mov	r18, r26
 99e:	30 e0       	ldi	r19, 0x00	; 0
 9a0:	82 17       	cp	r24, r18
 9a2:	93 07       	cpc	r25, r19
 9a4:	f4 f0       	brlt	.+60     	; 0x9e2 <dmScroll+0x70>
															// Note: As temp is allowed to underflow, this is 
															// true at both ends of the display memory.
		if (display.delay_counter) {
 9a6:	80 91 36 01 	lds	r24, 0x0136
 9aa:	88 23       	and	r24, r24
 9ac:	21 f0       	breq	.+8      	; 0x9b6 <dmScroll+0x44>
			display.delay_counter--;
 9ae:	81 50       	subi	r24, 0x01	; 1
 9b0:	80 93 36 01 	sts	0x0136, r24
 9b4:	14 c0       	rjmp	.+40     	; 0x9de <dmScroll+0x6c>
		}
		else {
			display.delay_counter = display.scroll_delay;					// reload delay counter
 9b6:	80 91 35 01 	lds	r24, 0x0135
 9ba:	80 93 36 01 	sts	0x0136, r24
			if (mode & 0x20)		{ display.scroll_mode = mode ^ 0x10; }	// reverse direction
 9be:	45 ff       	sbrs	r20, 5
 9c0:	05 c0       	rjmp	.+10     	; 0x9cc <dmScroll+0x5a>
 9c2:	80 e1       	ldi	r24, 0x10	; 16
 9c4:	8f 27       	eor	r24, r31
 9c6:	80 93 33 01 	sts	0x0133, r24
 9ca:	09 c0       	rjmp	.+18     	; 0x9de <dmScroll+0x6c>
			else if (mode &0x10)	{ display.base = display.cursor - DISP_COLUMNS; }	// restart from right end
 9cc:	61 15       	cp	r22, r1
 9ce:	71 05       	cpc	r23, r1
 9d0:	21 f0       	breq	.+8      	; 0x9da <dmScroll+0x68>
 9d2:	a5 50       	subi	r26, 0x05	; 5
 9d4:	a0 93 31 01 	sts	0x0131, r26
 9d8:	02 c0       	rjmp	.+4      	; 0x9de <dmScroll+0x6c>
			else					{ display.base = 0; }					// restart from left end
 9da:	10 92 31 01 	sts	0x0131, r1
		}
		return (1);
 9de:	81 e0       	ldi	r24, 0x01	; 1
 9e0:	08 95       	ret
	}
	else {
		display.base = temp;
 9e2:	e0 93 31 01 	sts	0x0131, r30
		return (0);
 9e6:	80 e0       	ldi	r24, 0x00	; 0
	}
}
 9e8:	08 95       	ret

000009ea <dmSetScrolling>:
	Description:	Set scrolling increment and direction.
					Delay sets number of scrolling steps to wait at end of scrolling range.
======================================================================*/
void dmSetScrolling(uint8_t inc, uint8_t dir, uint8_t delay)
{
	inc &= 0x0F;		// limit range
 9ea:	8f 70       	andi	r24, 0x0F	; 15
	dir &= 0x03;		// limit range
 9ec:	63 70       	andi	r22, 0x03	; 3
	if (dir != BACKWARD)	{ display.delay_counter = delay; }
 9ee:	61 30       	cpi	r22, 0x01	; 1
 9f0:	19 f0       	breq	.+6      	; 0x9f8 <dmSetScrolling+0xe>
 9f2:	40 93 36 01 	sts	0x0136, r20
 9f6:	02 c0       	rjmp	.+4      	; 0x9fc <dmSetScrolling+0x12>
	else					{ display.delay_counter = 0; }
 9f8:	10 92 36 01 	sts	0x0136, r1
	swap(dir);
 9fc:	62 95       	swap	r22
	display.scroll_mode   = inc | dir;
 9fe:	68 2b       	or	r22, r24
 a00:	60 93 33 01 	sts	0x0133, r22
	display.scroll_delay  = delay;
 a04:	40 93 35 01 	sts	0x0135, r20
}
 a08:	08 95       	ret

00000a0a <dmClearDisplay>:
======================================================================*/
void dmClearDisplay(void)
{
	uint8_t i;

	display.base  = 0;
 a0a:	10 92 31 01 	sts	0x0131, r1
	display.cursor = 0;
 a0e:	10 92 34 01 	sts	0x0134, r1
	for (i = 0; i < DISP_COLUMNS; i++) {
		display.memory[i] = 0;
 a12:	10 92 69 00 	sts	0x0069, r1
 a16:	10 92 6a 00 	sts	0x006A, r1
 a1a:	10 92 6b 00 	sts	0x006B, r1
 a1e:	10 92 6c 00 	sts	0x006C, r1
 a22:	10 92 6d 00 	sts	0x006D, r1
	}
}
 a26:	08 95       	ret

00000a28 <dmInit>:
	Output:			none
	Description:	Initialize the hardware.
======================================================================*/
void dmInit(void)
{
	dmClearDisplay();
 a28:	f0 df       	rcall	.-32     	; 0xa0a <dmClearDisplay>
	display.scroll_mode = 0;
 a2a:	10 92 33 01 	sts	0x0133, r1
	display.scroll_delay = 0;
 a2e:	10 92 35 01 	sts	0x0135, r1
}
 a32:	08 95       	ret

00000a34 <dmDisplayImage>:
======================================================================*/
void dmDisplayImage(const uint8_t* image)
{
	uint8_t img_data, pos;

	pos = display.cursor;
 a34:	20 91 34 01 	lds	r18, 0x0134
	while(pos < DISP_MAX) {
 a38:	0b c0       	rjmp	.+22     	; 0xa50 <dmDisplayImage+0x1c>
		img_data = pgm_read_byte(image++);	// read byte from flash
 a3a:	fc 01       	movw	r30, r24
 a3c:	34 91       	lpm	r19, Z
		if (img_data == 0xFF) { break; }	// stop if end-of-data has been reached
 a3e:	3f 3f       	cpi	r19, 0xFF	; 255
 a40:	49 f0       	breq	.+18     	; 0xa54 <dmDisplayImage+0x20>
{
	uint8_t img_data, pos;

	pos = display.cursor;
	while(pos < DISP_MAX) {
		img_data = pgm_read_byte(image++);	// read byte from flash
 a42:	01 96       	adiw	r24, 0x01	; 1
		if (img_data == 0xFF) { break; }	// stop if end-of-data has been reached
		display.memory[pos] = img_data;
 a44:	e2 2f       	mov	r30, r18
 a46:	f0 e0       	ldi	r31, 0x00	; 0
 a48:	e7 59       	subi	r30, 0x97	; 151
 a4a:	ff 4f       	sbci	r31, 0xFF	; 255
 a4c:	30 83       	st	Z, r19
		pos++;
 a4e:	2f 5f       	subi	r18, 0xFF	; 255
void dmDisplayImage(const uint8_t* image)
{
	uint8_t img_data, pos;

	pos = display.cursor;
	while(pos < DISP_MAX) {
 a50:	28 3c       	cpi	r18, 0xC8	; 200
 a52:	98 f3       	brcs	.-26     	; 0xa3a <dmDisplayImage+0x6>
		img_data = pgm_read_byte(image++);	// read byte from flash
		if (img_data == 0xFF) { break; }	// stop if end-of-data has been reached
		display.memory[pos] = img_data;
		pos++;
	}
	display.cursor = pos;
 a54:	20 93 34 01 	sts	0x0134, r18
}
 a58:	08 95       	ret

00000a5a <dmPrintByte>:
======================================================================*/
void dmPrintByte(uint8_t byt)
{
	uint8_t pos;

	pos = display.cursor;
 a5a:	90 91 34 01 	lds	r25, 0x0134
	if (pos < DISP_MAX) { 
 a5e:	98 3c       	cpi	r25, 0xC8	; 200
 a60:	40 f4       	brcc	.+16     	; 0xa72 <dmPrintByte+0x18>
		display.memory[pos] = byt;
 a62:	e9 2f       	mov	r30, r25
 a64:	f0 e0       	ldi	r31, 0x00	; 0
 a66:	e7 59       	subi	r30, 0x97	; 151
 a68:	ff 4f       	sbci	r31, 0xFF	; 255
 a6a:	80 83       	st	Z, r24
		pos++;
 a6c:	9f 5f       	subi	r25, 0xFF	; 255
		display.cursor = pos;
 a6e:	90 93 34 01 	sts	0x0134, r25
 a72:	08 95       	ret

00000a74 <dmPrintChar>:
{
	uint8_t  i, pos, char_data;
	uint16_t fnt;			// pointer into character font

	// mapping of german special characters
	if (ch == 223) { ch = 138; }		// 'ß'
 a74:	8f 3d       	cpi	r24, 0xDF	; 223
 a76:	49 f0       	breq	.+18     	; 0xa8a <dmPrintChar+0x16>
	if (ch == 196) { ch = 133; }		// 'Ä'
 a78:	84 3c       	cpi	r24, 0xC4	; 196
 a7a:	61 f0       	breq	.+24     	; 0xa94 <dmPrintChar+0x20>
	if (ch == 214) { ch = 135; }		// 'Ö'
 a7c:	86 3d       	cpi	r24, 0xD6	; 214
 a7e:	79 f0       	breq	.+30     	; 0xa9e <dmPrintChar+0x2a>
	if (ch == 220) { ch = 137; }		// 'Ü'
 a80:	8c 3d       	cpi	r24, 0xDC	; 220
 a82:	79 f0       	breq	.+30     	; 0xaa2 <dmPrintChar+0x2e>
	if (ch == 228) { ch = 132; }		// 'ä'
 a84:	84 3e       	cpi	r24, 0xE4	; 228
 a86:	79 f0       	breq	.+30     	; 0xaa6 <dmPrintChar+0x32>
 a88:	02 c0       	rjmp	.+4      	; 0xa8e <dmPrintChar+0x1a>
{
	uint8_t  i, pos, char_data;
	uint16_t fnt;			// pointer into character font

	// mapping of german special characters
	if (ch == 223) { ch = 138; }		// 'ß'
 a8a:	8a e8       	ldi	r24, 0x8A	; 138
 a8c:	11 c0       	rjmp	.+34     	; 0xab0 <dmPrintChar+0x3c>
	if (ch == 196) { ch = 133; }		// 'Ä'
	if (ch == 214) { ch = 135; }		// 'Ö'
	if (ch == 220) { ch = 137; }		// 'Ü'
	if (ch == 228) { ch = 132; }		// 'ä'
	if (ch == 246) { ch = 134; }		// 'ö'
 a8e:	86 3f       	cpi	r24, 0xF6	; 246
 a90:	61 f0       	breq	.+24     	; 0xaaa <dmPrintChar+0x36>
 a92:	02 c0       	rjmp	.+4      	; 0xa98 <dmPrintChar+0x24>
	uint8_t  i, pos, char_data;
	uint16_t fnt;			// pointer into character font

	// mapping of german special characters
	if (ch == 223) { ch = 138; }		// 'ß'
	if (ch == 196) { ch = 133; }		// 'Ä'
 a94:	85 e8       	ldi	r24, 0x85	; 133
 a96:	0c c0       	rjmp	.+24     	; 0xab0 <dmPrintChar+0x3c>
	if (ch == 214) { ch = 135; }		// 'Ö'
	if (ch == 220) { ch = 137; }		// 'Ü'
	if (ch == 228) { ch = 132; }		// 'ä'
	if (ch == 246) { ch = 134; }		// 'ö'
	if (ch == 252) { ch = 136; }		// 'ü'
 a98:	8c 3f       	cpi	r24, 0xFC	; 252
 a9a:	49 f0       	breq	.+18     	; 0xaae <dmPrintChar+0x3a>
 a9c:	09 c0       	rjmp	.+18     	; 0xab0 <dmPrintChar+0x3c>
	uint16_t fnt;			// pointer into character font

	// mapping of german special characters
	if (ch == 223) { ch = 138; }		// 'ß'
	if (ch == 196) { ch = 133; }		// 'Ä'
	if (ch == 214) { ch = 135; }		// 'Ö'
 a9e:	87 e8       	ldi	r24, 0x87	; 135
 aa0:	07 c0       	rjmp	.+14     	; 0xab0 <dmPrintChar+0x3c>
	if (ch == 220) { ch = 137; }		// 'Ü'
 aa2:	89 e8       	ldi	r24, 0x89	; 137
 aa4:	05 c0       	rjmp	.+10     	; 0xab0 <dmPrintChar+0x3c>
	if (ch == 228) { ch = 132; }		// 'ä'
 aa6:	84 e8       	ldi	r24, 0x84	; 132
 aa8:	03 c0       	rjmp	.+6      	; 0xab0 <dmPrintChar+0x3c>
	if (ch == 246) { ch = 134; }		// 'ö'
 aaa:	86 e8       	ldi	r24, 0x86	; 134
 aac:	01 c0       	rjmp	.+2      	; 0xab0 <dmPrintChar+0x3c>
	if (ch == 252) { ch = 136; }		// 'ü'
 aae:	88 e8       	ldi	r24, 0x88	; 136
	ch -= 32;
 ab0:	80 52       	subi	r24, 0x20	; 32
	if (ch > (sizeof(font)/CHAR_WIDTH)) { return; }
 ab2:	81 39       	cpi	r24, 0x91	; 145
 ab4:	10 f5       	brcc	.+68     	; 0xafa <dmPrintChar+0x86>
		
	fnt = ch;
 ab6:	e8 2f       	mov	r30, r24
 ab8:	f0 e0       	ldi	r31, 0x00	; 0
	fnt = (fnt << 2) + fnt + (uint16_t) &font[0];		// fnt = &font + 5 * ch
 aba:	cf 01       	movw	r24, r30
 abc:	88 0f       	add	r24, r24
 abe:	99 1f       	adc	r25, r25
 ac0:	88 0f       	add	r24, r24
 ac2:	99 1f       	adc	r25, r25
 ac4:	ee 5a       	subi	r30, 0xAE	; 174
 ac6:	ff 4f       	sbci	r31, 0xFF	; 255
 ac8:	e8 0f       	add	r30, r24
 aca:	f9 1f       	adc	r31, r25
	
	pos = display.cursor;
 acc:	80 91 34 01 	lds	r24, 0x0134
 ad0:	95 e0       	ldi	r25, 0x05	; 5
 ad2:	01 c0       	rjmp	.+2      	; 0xad6 <dmPrintChar+0x62>
	for (i = 0; i < CHAR_WIDTH; i++) {
		char_data = pgm_read_byte(fnt++);	// read byte from font
 ad4:	f9 01       	movw	r30, r18
 ad6:	9f 01       	movw	r18, r30
 ad8:	2f 5f       	subi	r18, 0xFF	; 255
 ada:	3f 4f       	sbci	r19, 0xFF	; 255
 adc:	e4 91       	lpm	r30, Z
		if (char_data & 0x80) { break; }	// stop if MSB is set (proportional character width)
 ade:	e7 fd       	sbrc	r30, 7
 ae0:	0a c0       	rjmp	.+20     	; 0xaf6 <dmPrintChar+0x82>
		if (pos < DISP_MAX) {
 ae2:	88 3c       	cpi	r24, 0xC8	; 200
 ae4:	30 f4       	brcc	.+12     	; 0xaf2 <dmPrintChar+0x7e>
			display.memory[pos] = char_data;
 ae6:	a8 2f       	mov	r26, r24
 ae8:	b0 e0       	ldi	r27, 0x00	; 0
 aea:	a7 59       	subi	r26, 0x97	; 151
 aec:	bf 4f       	sbci	r27, 0xFF	; 255
 aee:	ec 93       	st	X, r30
			pos++;
 af0:	8f 5f       	subi	r24, 0xFF	; 255
 af2:	91 50       	subi	r25, 0x01	; 1
		
	fnt = ch;
	fnt = (fnt << 2) + fnt + (uint16_t) &font[0];		// fnt = &font + 5 * ch
	
	pos = display.cursor;
	for (i = 0; i < CHAR_WIDTH; i++) {
 af4:	79 f7       	brne	.-34     	; 0xad4 <dmPrintChar+0x60>
		if (pos < DISP_MAX) {
			display.memory[pos] = char_data;
			pos++;
		}		
	}
	display.cursor = pos;
 af6:	80 93 34 01 	sts	0x0134, r24
 afa:	08 95       	ret

00000afc <InitHardware>:
	Description:	.
======================================================================*/
void InitHardware(void)
{
	// switch all pins that are connected to the dot matrix to output
	DDRA = DISP_MASK_A;
 afc:	83 e0       	ldi	r24, 0x03	; 3
 afe:	8a bb       	out	0x1a, r24	; 26
	DDRB = DISP_MASK_B;
 b00:	8e e7       	ldi	r24, 0x7E	; 126
 b02:	87 bb       	out	0x17, r24	; 23
	DDRD = DISP_MASK_D;
 b04:	8e e1       	ldi	r24, 0x1E	; 30
 b06:	81 bb       	out	0x11, r24	; 17
	
	// enable pull-ups on all input pins to avoid floating inputs
	PORTA |= ~DISP_MASK_A;
 b08:	8b b3       	in	r24, 0x1b	; 27
 b0a:	8c 6f       	ori	r24, 0xFC	; 252
 b0c:	8b bb       	out	0x1b, r24	; 27
	PORTB |= ~DISP_MASK_B;
 b0e:	88 b3       	in	r24, 0x18	; 24
 b10:	81 68       	ori	r24, 0x81	; 129
 b12:	88 bb       	out	0x18, r24	; 24
	PORTD |= ~DISP_MASK_D;
 b14:	82 b3       	in	r24, 0x12	; 18
 b16:	81 6e       	ori	r24, 0xE1	; 225
 b18:	82 bb       	out	0x12, r24	; 18
	
	// timer 0
	TCCR0A = (0<<WGM00);				// timer mode = normal
 b1a:	10 be       	out	0x30, r1	; 48
	TCCR0B = (5<<CS00);					// prescaler = 1:1024
 b1c:	85 e0       	ldi	r24, 0x05	; 5
 b1e:	83 bf       	out	0x33, r24	; 51
	OCR0A = OCR0A_CYCLE_TIME;
 b20:	84 e0       	ldi	r24, 0x04	; 4
 b22:	86 bf       	out	0x36, r24	; 54
	OCR0B = OCR0B_CYCLE_TIME;
 b24:	87 e2       	ldi	r24, 0x27	; 39
 b26:	8c bf       	out	0x3c, r24	; 60
	TIMSK |= (1<<OCIE0B)|(1<<OCIE0A);
 b28:	89 b7       	in	r24, 0x39	; 57
 b2a:	85 60       	ori	r24, 0x05	; 5
 b2c:	89 bf       	out	0x39, r24	; 57
	
	// serial interface
	// Note: Speed of the serial interface must not be higher than 2400 Baud.
	// This leaves enough time for the EEPROM write operation to complete before 
	// the next byte arrives.
	UBRRL = 103;						// 2400 baud
 b2e:	87 e6       	ldi	r24, 0x67	; 103
 b30:	89 b9       	out	0x09, r24	; 9
//	UBRRL = 207;						// 1200 baud
	UBRRH = 0;
 b32:	12 b8       	out	0x02, r1	; 2
	UCSRB = (1<<RXCIE)|(1<<RXEN);		// enable receiver, enable RX interrupt
 b34:	80 e9       	ldi	r24, 0x90	; 144
 b36:	8a b9       	out	0x0a, r24	; 10
	UCSRC = (3<<UCSZ0);					// async USART, 8 data bits, no parity, 1 stop bit
 b38:	86 e0       	ldi	r24, 0x06	; 6
 b3a:	83 b9       	out	0x03, r24	; 3
}
 b3c:	08 95       	ret

00000b3e <SetMode>:
					Bit 6..4:	delay between scrolling repetitions (0 = shortest, 7 = longest)
					Bit 3:		scrolling increment (cleared = +1 (for texts), set = +5 (for animations))
					Bit 2..0:	scrolling speed (1 = slowest, 7 = fastest)
======================================================================*/
void SetMode(uint8_t mode)
{
 b3e:	cf 93       	push	r28
 b40:	c8 2f       	mov	r28, r24
	uint8_t inc, dir, dly, spd;

	if (mode & 0x08)	{ inc = 5; }
 b42:	83 ff       	sbrs	r24, 3
 b44:	02 c0       	rjmp	.+4      	; 0xb4a <SetMode+0xc>
 b46:	85 e0       	ldi	r24, 0x05	; 5
 b48:	01 c0       	rjmp	.+2      	; 0xb4c <SetMode+0xe>
		else			{ inc = 1; }
 b4a:	81 e0       	ldi	r24, 0x01	; 1
	if (mode & 0x80)	{ dir = BIDIRECTIONAL; }
 b4c:	6c 2f       	mov	r22, r28
 b4e:	66 1f       	adc	r22, r22
 b50:	66 27       	eor	r22, r22
 b52:	66 1f       	adc	r22, r22
 b54:	66 0f       	add	r22, r22
		else			{ dir = FORWARD; }
	spd = mode & 0x07;
	dly = swap(mode) & 0x07;
 b56:	ec 2f       	mov	r30, r28
 b58:	e2 95       	swap	r30
 b5a:	e7 70       	andi	r30, 0x07	; 7
	dmSetScrolling(inc, dir, pgm_read_byte(&dly_conv[dly]));
 b5c:	f0 e0       	ldi	r31, 0x00	; 0
 b5e:	eb 5a       	subi	r30, 0xAB	; 171
 b60:	f7 4f       	sbci	r31, 0xF7	; 247
 b62:	44 91       	lpm	r20, Z
 b64:	42 df       	rcall	.-380    	; 0x9ea <dmSetScrolling>

	if (mode & 0x08)	{ inc = 5; }
		else			{ inc = 1; }
	if (mode & 0x80)	{ dir = BIDIRECTIONAL; }
		else			{ dir = FORWARD; }
	spd = mode & 0x07;
 b66:	c7 70       	andi	r28, 0x07	; 7
	dly = swap(mode) & 0x07;
	dmSetScrolling(inc, dir, pgm_read_byte(&dly_conv[dly]));
	scroll_speed = pgm_read_byte(&spd_conv[spd]);
 b68:	ec 2f       	mov	r30, r28
 b6a:	f0 e0       	ldi	r31, 0x00	; 0
 b6c:	e3 5b       	subi	r30, 0xB3	; 179
 b6e:	f7 4f       	sbci	r31, 0xF7	; 247
 b70:	e4 91       	lpm	r30, Z
 b72:	e0 93 63 00 	sts	0x0063, r30
}		
 b76:	cf 91       	pop	r28
 b78:	08 95       	ret

00000b7a <DisplayMessage>:
					the following bytes are directly written to the display 
					memory without being decoded using the character font.
					Direct mode is ended by 0xFF.
======================================================================*/
uint8_t* DisplayMessage(uint8_t* ee_adr)
{
 b7a:	ef 92       	push	r14
 b7c:	ff 92       	push	r15
 b7e:	0f 93       	push	r16
 b80:	1f 93       	push	r17
 b82:	cf 93       	push	r28
 b84:	df 93       	push	r29
 b86:	0f 92       	push	r0
 b88:	cd b7       	in	r28, 0x3d	; 61
 b8a:	de b7       	in	r29, 0x3e	; 62
 b8c:	7c 01       	movw	r14, r24
	uint8_t ch;

	SetMode(eeprom_read_byte(ee_adr));
 b8e:	fe d1       	rcall	.+1020   	; 0xf8c <__eerd_byte_tn4313>
 b90:	d6 df       	rcall	.-84     	; 0xb3e <SetMode>
	ee_adr++;
	dmClearDisplay();
 b92:	3b df       	rcall	.-394    	; 0xa0a <dmClearDisplay>

	ch = eeprom_read_byte(ee_adr++);
 b94:	87 01       	movw	r16, r14
 b96:	0e 5f       	subi	r16, 0xFE	; 254
 b98:	1f 4f       	sbci	r17, 0xFF	; 255
 b9a:	c7 01       	movw	r24, r14
 b9c:	01 96       	adiw	r24, 0x01	; 1
 b9e:	f6 d1       	rcall	.+1004   	; 0xf8c <__eerd_byte_tn4313>
 ba0:	98 2f       	mov	r25, r24
	while (ch) {
 ba2:	42 c0       	rjmp	.+132    	; 0xc28 <DisplayMessage+0xae>
		if (ch == '~') {					// animation
			ch = eeprom_read_byte(ee_adr++);
 ba4:	78 01       	movw	r14, r16
	ee_adr++;
	dmClearDisplay();

	ch = eeprom_read_byte(ee_adr++);
	while (ch) {
		if (ch == '~') {					// animation
 ba6:	9e 37       	cpi	r25, 0x7E	; 126
 ba8:	a1 f4       	brne	.+40     	; 0xbd2 <DisplayMessage+0x58>
			ch = eeprom_read_byte(ee_adr++);
 baa:	08 94       	sec
 bac:	e1 1c       	adc	r14, r1
 bae:	f1 1c       	adc	r15, r1
 bb0:	c8 01       	movw	r24, r16
 bb2:	ec d1       	rcall	.+984    	; 0xf8c <__eerd_byte_tn4313>
			if (ch != '~') {
 bb4:	8e 37       	cpi	r24, 0x7E	; 126
 bb6:	61 f1       	breq	.+88     	; 0xc10 <DisplayMessage+0x96>
				ch -= 'A';
 bb8:	e8 2f       	mov	r30, r24
 bba:	e1 54       	subi	r30, 0x41	; 65
				if (ch < ANIMATION_COUNT) {
 bbc:	e6 31       	cpi	r30, 0x16	; 22
 bbe:	40 f5       	brcc	.+80     	; 0xc10 <DisplayMessage+0x96>
					dmDisplayImage((const uint8_t*)pgm_read_word(&animation[ch]));
 bc0:	f0 e0       	ldi	r31, 0x00	; 0
 bc2:	ee 0f       	add	r30, r30
 bc4:	ff 1f       	adc	r31, r31
 bc6:	ee 5d       	subi	r30, 0xDE	; 222
 bc8:	fc 4f       	sbci	r31, 0xFC	; 252
 bca:	85 91       	lpm	r24, Z+
 bcc:	94 91       	lpm	r25, Z
 bce:	32 df       	rcall	.-412    	; 0xa34 <dmDisplayImage>
 bd0:	1f c0       	rjmp	.+62     	; 0xc10 <DisplayMessage+0x96>
				}				
			}
		}
		else if (ch == 0xFF) {				// direct mode
 bd2:	9f 3f       	cpi	r25, 0xFF	; 255
 bd4:	81 f4       	brne	.+32     	; 0xbf6 <DisplayMessage+0x7c>
			ch = eeprom_read_byte(ee_adr++);
 bd6:	08 94       	sec
 bd8:	e1 1c       	adc	r14, r1
 bda:	f1 1c       	adc	r15, r1
 bdc:	c8 01       	movw	r24, r16
 bde:	d6 d1       	rcall	.+940    	; 0xf8c <__eerd_byte_tn4313>
			while (ch != 0xFF) {
 be0:	07 c0       	rjmp	.+14     	; 0xbf0 <DisplayMessage+0x76>
				dmPrintByte(ch);
 be2:	3b df       	rcall	.-394    	; 0xa5a <dmPrintByte>
				ch = eeprom_read_byte(ee_adr++);
 be4:	87 01       	movw	r16, r14
 be6:	0f 5f       	subi	r16, 0xFF	; 255
 be8:	1f 4f       	sbci	r17, 0xFF	; 255
 bea:	c7 01       	movw	r24, r14
 bec:	cf d1       	rcall	.+926    	; 0xf8c <__eerd_byte_tn4313>
 bee:	78 01       	movw	r14, r16
				}				
			}
		}
		else if (ch == 0xFF) {				// direct mode
			ch = eeprom_read_byte(ee_adr++);
			while (ch != 0xFF) {
 bf0:	8f 3f       	cpi	r24, 0xFF	; 255
 bf2:	b9 f7       	brne	.-18     	; 0xbe2 <DisplayMessage+0x68>
 bf4:	0d c0       	rjmp	.+26     	; 0xc10 <DisplayMessage+0x96>
				dmPrintByte(ch);
				ch = eeprom_read_byte(ee_adr++);
			}
		}
		else {								// character
			if (ch == '^') {				// special character
 bf6:	9e 35       	cpi	r25, 0x5E	; 94
 bf8:	49 f4       	brne	.+18     	; 0xc0c <DisplayMessage+0x92>
				ch = eeprom_read_byte(ee_adr++);
 bfa:	08 94       	sec
 bfc:	e1 1c       	adc	r14, r1
 bfe:	f1 1c       	adc	r15, r1
 c00:	c8 01       	movw	r24, r16
 c02:	c4 d1       	rcall	.+904    	; 0xf8c <__eerd_byte_tn4313>
 c04:	98 2f       	mov	r25, r24
				if (ch != '^') {
 c06:	8e 35       	cpi	r24, 0x5E	; 94
 c08:	09 f0       	breq	.+2      	; 0xc0c <DisplayMessage+0x92>
					ch += 63;
 c0a:	91 5c       	subi	r25, 0xC1	; 193
				}
			}
			dmPrintChar(ch);
 c0c:	89 2f       	mov	r24, r25
 c0e:	32 df       	rcall	.-412    	; 0xa74 <dmPrintChar>
		}
		ch = eeprom_read_byte(ee_adr++);
 c10:	87 01       	movw	r16, r14
 c12:	0f 5f       	subi	r16, 0xFF	; 255
 c14:	1f 4f       	sbci	r17, 0xFF	; 255
 c16:	c7 01       	movw	r24, r14
 c18:	b9 d1       	rcall	.+882    	; 0xf8c <__eerd_byte_tn4313>
 c1a:	98 2f       	mov	r25, r24
		if (ch) { dmPrintByte(0); }			// print a narrow space except for the last character					
 c1c:	88 23       	and	r24, r24
 c1e:	21 f0       	breq	.+8      	; 0xc28 <DisplayMessage+0xae>
 c20:	80 e0       	ldi	r24, 0x00	; 0
 c22:	99 83       	std	Y+1, r25	; 0x01
 c24:	1a df       	rcall	.-460    	; 0xa5a <dmPrintByte>
 c26:	99 81       	ldd	r25, Y+1	; 0x01
	SetMode(eeprom_read_byte(ee_adr));
	ee_adr++;
	dmClearDisplay();

	ch = eeprom_read_byte(ee_adr++);
	while (ch) {
 c28:	99 23       	and	r25, r25
 c2a:	09 f0       	breq	.+2      	; 0xc2e <DisplayMessage+0xb4>
 c2c:	bb cf       	rjmp	.-138    	; 0xba4 <DisplayMessage+0x2a>
			dmPrintChar(ch);
		}
		ch = eeprom_read_byte(ee_adr++);
		if (ch) { dmPrintByte(0); }			// print a narrow space except for the last character					
	}
	ch = eeprom_read_byte(ee_adr);			// read mode byte of next message
 c2e:	c8 01       	movw	r24, r16
 c30:	ad d1       	rcall	.+858    	; 0xf8c <__eerd_byte_tn4313>
	if (ch)		{ return(ee_adr); }
 c32:	88 23       	and	r24, r24
 c34:	11 f4       	brne	.+4      	; 0xc3a <DisplayMessage+0xc0>
		else	{ return((uint8_t*) messages); }	// restart all-over if mode byte is 0
 c36:	00 e0       	ldi	r16, 0x00	; 0
 c38:	10 e0       	ldi	r17, 0x00	; 0
}
 c3a:	c8 01       	movw	r24, r16
 c3c:	0f 90       	pop	r0
 c3e:	df 91       	pop	r29
 c40:	cf 91       	pop	r28
 c42:	1f 91       	pop	r17
 c44:	0f 91       	pop	r16
 c46:	ff 90       	pop	r15
 c48:	ef 90       	pop	r14
 c4a:	08 95       	ret

00000c4c <GoToSleep>:
	Description:	Put the controller into sleep mode and prepare for
					wake-up by a pin change interrupt.
======================================================================*/
void GoToSleep(void)
{
	dmClearDisplay();
 c4c:	de de       	rcall	.-580    	; 0xa0a <dmClearDisplay>
	#else
		//round up by default
		__ticks_dc = (uint32_t)(ceil(fabs(__tmp)));
	#endif

	__builtin_avr_delay_cycles(__ticks_dc);
 c4e:	8f ef       	ldi	r24, 0xFF	; 255
 c50:	94 e3       	ldi	r25, 0x34	; 52
 c52:	ac e0       	ldi	r26, 0x0C	; 12
 c54:	81 50       	subi	r24, 0x01	; 1
 c56:	90 40       	sbci	r25, 0x00	; 0
 c58:	a0 40       	sbci	r26, 0x00	; 0
 c5a:	e1 f7       	brne	.-8      	; 0xc54 <GoToSleep+0x8>
 c5c:	00 c0       	rjmp	.+0      	; 0xc5e <GoToSleep+0x12>
 c5e:	00 00       	nop
	_delay_ms(1000);
	GIFR = (1<<PCIF2);				// clear interrupt flag
 c60:	80 e1       	ldi	r24, 0x10	; 16
 c62:	8a bf       	out	0x3a, r24	; 58
	PCMSK2 = (1<<PCINT17);			// enable pin change interrupt
 c64:	90 e4       	ldi	r25, 0x40	; 64
 c66:	95 b9       	out	0x05, r25	; 5
	GIMSK = (1<<PCIE2);				// enable pin change interrupt
 c68:	8b bf       	out	0x3b, r24	; 59
	set_sleep_mode(SLEEP_MODE_PWR_DOWN);
 c6a:	85 b7       	in	r24, 0x35	; 53
 c6c:	80 65       	ori	r24, 0x50	; 80
 c6e:	85 bf       	out	0x35, r24	; 53
	sleep_mode();
 c70:	85 b7       	in	r24, 0x35	; 53
 c72:	80 62       	ori	r24, 0x20	; 32
 c74:	85 bf       	out	0x35, r24	; 53
 c76:	88 95       	sleep
 c78:	85 b7       	in	r24, 0x35	; 53
 c7a:	8f 7d       	andi	r24, 0xDF	; 223
 c7c:	85 bf       	out	0x35, r24	; 53
	GIMSK = 0;						// disable all external interrupts (including pin change)
 c7e:	1b be       	out	0x3b, r1	; 59
	dmPrintChar(131);				// happy smiley
 c80:	83 e8       	ldi	r24, 0x83	; 131
 c82:	f8 de       	rcall	.-528    	; 0xa74 <dmPrintChar>
 c84:	8f e7       	ldi	r24, 0x7F	; 127
 c86:	9a e1       	ldi	r25, 0x1A	; 26
 c88:	a6 e0       	ldi	r26, 0x06	; 6
 c8a:	81 50       	subi	r24, 0x01	; 1
 c8c:	90 40       	sbci	r25, 0x00	; 0
 c8e:	a0 40       	sbci	r26, 0x00	; 0
 c90:	e1 f7       	brne	.-8      	; 0xc8a <GoToSleep+0x3e>
 c92:	00 c0       	rjmp	.+0      	; 0xc94 <GoToSleep+0x48>
 c94:	00 00       	nop
	_delay_ms(500);
	msg_ptr = DisplayMessage((uint8_t*) messages);
 c96:	80 e0       	ldi	r24, 0x00	; 0
 c98:	90 e0       	ldi	r25, 0x00	; 0
 c9a:	6f df       	rcall	.-290    	; 0xb7a <DisplayMessage>
 c9c:	90 93 38 01 	sts	0x0138, r25
 ca0:	80 93 37 01 	sts	0x0137, r24
}
 ca4:	08 95       	ret

00000ca6 <__vector_13>:
 * interrupt service routines *
 ******************************/

ISR(TIMER0_COMPA_vect)
// display interrupt
{
 ca6:	1f 92       	push	r1
 ca8:	0f 92       	push	r0
 caa:	0f b6       	in	r0, 0x3f	; 63
 cac:	0f 92       	push	r0
 cae:	11 24       	eor	r1, r1
 cb0:	2f 93       	push	r18
 cb2:	3f 93       	push	r19
 cb4:	4f 93       	push	r20
 cb6:	5f 93       	push	r21
 cb8:	6f 93       	push	r22
 cba:	7f 93       	push	r23
 cbc:	8f 93       	push	r24
 cbe:	9f 93       	push	r25
 cc0:	af 93       	push	r26
 cc2:	bf 93       	push	r27
 cc4:	ef 93       	push	r30
 cc6:	ff 93       	push	r31
	OCR0A += OCR0A_CYCLE_TIME;				// setup next cycle
 cc8:	86 b7       	in	r24, 0x36	; 54
 cca:	8c 5f       	subi	r24, 0xFC	; 252
 ccc:	86 bf       	out	0x36, r24	; 54

	dmDisplay();							// show next column on dot matrix display
 cce:	e3 dd       	rcall	.-1082   	; 0x896 <dmDisplay>
}
 cd0:	ff 91       	pop	r31
 cd2:	ef 91       	pop	r30
 cd4:	bf 91       	pop	r27
 cd6:	af 91       	pop	r26
 cd8:	9f 91       	pop	r25
 cda:	8f 91       	pop	r24
 cdc:	7f 91       	pop	r23
 cde:	6f 91       	pop	r22
 ce0:	5f 91       	pop	r21
 ce2:	4f 91       	pop	r20
 ce4:	3f 91       	pop	r19
 ce6:	2f 91       	pop	r18
 ce8:	0f 90       	pop	r0
 cea:	0f be       	out	0x3f, r0	; 63
 cec:	0f 90       	pop	r0
 cee:	1f 90       	pop	r1
 cf0:	18 95       	reti

00000cf2 <__vector_14>:


ISR(TIMER0_COMPB_vect)
// system timer interrupt
{
 cf2:	1f 92       	push	r1
 cf4:	0f 92       	push	r0
 cf6:	0f b6       	in	r0, 0x3f	; 63
 cf8:	0f 92       	push	r0
 cfa:	11 24       	eor	r1, r1
 cfc:	2f 93       	push	r18
 cfe:	3f 93       	push	r19
 d00:	4f 93       	push	r20
 d02:	5f 93       	push	r21
 d04:	6f 93       	push	r22
 d06:	7f 93       	push	r23
 d08:	8f 93       	push	r24
 d0a:	9f 93       	push	r25
 d0c:	af 93       	push	r26
 d0e:	bf 93       	push	r27
 d10:	ef 93       	push	r30
 d12:	ff 93       	push	r31
	static uint8_t scroll_timer = 1;
	static uint8_t pb_timer = 0;			// push button timer
	uint8_t temp;
		
	OCR0B += OCR0B_CYCLE_TIME;				// setup next cycle
 d14:	8c b7       	in	r24, 0x3c	; 60
 d16:	89 5d       	subi	r24, 0xD9	; 217
 d18:	8c bf       	out	0x3c, r24	; 60

	if (scroll_timer) {
 d1a:	80 91 64 00 	lds	r24, 0x0064
 d1e:	88 23       	and	r24, r24
 d20:	21 f0       	breq	.+8      	; 0xd2a <__vector_14+0x38>
		scroll_timer--;
 d22:	81 50       	subi	r24, 0x01	; 1
 d24:	80 93 64 00 	sts	0x0064, r24
 d28:	05 c0       	rjmp	.+10     	; 0xd34 <__vector_14+0x42>
	}
	else {
		scroll_timer = scroll_speed;		// restart timer
 d2a:	80 91 63 00 	lds	r24, 0x0063
 d2e:	80 93 64 00 	sts	0x0064, r24
		dmScroll();							// do a scrolling step
 d32:	1f de       	rcall	.-962    	; 0x972 <dmScroll>
	}
	
	// push button sampling
	temp = ~PB_PIN;							// sample push button
 d34:	80 b3       	in	r24, 0x10	; 16
	temp &= PB_MASK;						// extract push button state
	if (temp == 0) {						// --- button not pressed ---
 d36:	86 ff       	sbrs	r24, 6
 d38:	08 c0       	rjmp	.+16     	; 0xd4a <__vector_14+0x58>
		if (button & PB_PRESS) {			// former state = pressed?
 d3a:	80 91 62 00 	lds	r24, 0x0062
 d3e:	80 ff       	sbrs	r24, 0
 d40:	1c c0       	rjmp	.+56     	; 0xd7a <__vector_14+0x88>
			button &= ~(PB_PRESS | PB_ACK);	// -> issue release event
 d42:	80 91 62 00 	lds	r24, 0x0062
 d46:	8e 77       	andi	r24, 0x7E	; 126
 d48:	12 c0       	rjmp	.+36     	; 0xd6e <__vector_14+0x7c>
		}
	}
	else {									// --- button pressed ---
		if ((button & PB_PRESS) == 0) {		// former state = button released?
 d4a:	80 91 62 00 	lds	r24, 0x0062
 d4e:	80 fd       	sbrc	r24, 0
 d50:	05 c0       	rjmp	.+10     	; 0xd5c <__vector_14+0x6a>
			button = PB_PRESS;				// issue new press event
 d52:	81 e0       	ldi	r24, 0x01	; 1
 d54:	80 93 62 00 	sts	0x0062, r24
			pb_timer = PB_LONGPRESS_DELAY;	// start push button timer
 d58:	84 e6       	ldi	r24, 0x64	; 100
 d5a:	0d c0       	rjmp	.+26     	; 0xd76 <__vector_14+0x84>
		}
		else {
			if (button == PB_PRESS) {		// holding key pressed
 d5c:	80 91 62 00 	lds	r24, 0x0062
 d60:	81 30       	cpi	r24, 0x01	; 1
 d62:	59 f4       	brne	.+22     	; 0xd7a <__vector_14+0x88>
				if (pb_timer == 0) {		// if push button timer has elapsed
 d64:	80 91 66 00 	lds	r24, 0x0066
 d68:	88 23       	and	r24, r24
 d6a:	21 f4       	brne	.+8      	; 0xd74 <__vector_14+0x82>
					button = PB_LONGPRESS;	// issue long event
 d6c:	83 e0       	ldi	r24, 0x03	; 3
 d6e:	80 93 62 00 	sts	0x0062, r24
 d72:	03 c0       	rjmp	.+6      	; 0xd7a <__vector_14+0x88>
				}
				else {
					pb_timer--;
 d74:	81 50       	subi	r24, 0x01	; 1
 d76:	80 93 66 00 	sts	0x0066, r24
				}
			}			
		}		
	}
	
}
 d7a:	ff 91       	pop	r31
 d7c:	ef 91       	pop	r30
 d7e:	bf 91       	pop	r27
 d80:	af 91       	pop	r26
 d82:	9f 91       	pop	r25
 d84:	8f 91       	pop	r24
 d86:	7f 91       	pop	r23
 d88:	6f 91       	pop	r22
 d8a:	5f 91       	pop	r21
 d8c:	4f 91       	pop	r20
 d8e:	3f 91       	pop	r19
 d90:	2f 91       	pop	r18
 d92:	0f 90       	pop	r0
 d94:	0f be       	out	0x3f, r0	; 63
 d96:	0f 90       	pop	r0
 d98:	1f 90       	pop	r1
 d9a:	18 95       	reti

00000d9c <__vector_20>:


ISR(PCINT_D_vect)
// pin change interrupt (for wake-up)
{
 d9c:	1f 92       	push	r1
 d9e:	0f 92       	push	r0
 da0:	0f b6       	in	r0, 0x3f	; 63
 da2:	0f 92       	push	r0
 da4:	11 24       	eor	r1, r1
}
 da6:	0f 90       	pop	r0
 da8:	0f be       	out	0x3f, r0	; 63
 daa:	0f 90       	pop	r0
 dac:	1f 90       	pop	r1
 dae:	18 95       	reti

00000db0 <__vector_7>:



ISR(USART0_RX_vect)
{
 db0:	1f 92       	push	r1
 db2:	0f 92       	push	r0
 db4:	0f b6       	in	r0, 0x3f	; 63
 db6:	0f 92       	push	r0
 db8:	11 24       	eor	r1, r1
 dba:	2f 93       	push	r18
 dbc:	3f 93       	push	r19
 dbe:	4f 93       	push	r20
 dc0:	5f 93       	push	r21
 dc2:	6f 93       	push	r22
 dc4:	7f 93       	push	r23
 dc6:	8f 93       	push	r24
 dc8:	9f 93       	push	r25
 dca:	af 93       	push	r26
 dcc:	bf 93       	push	r27
 dce:	cf 93       	push	r28
 dd0:	ef 93       	push	r30
 dd2:	ff 93       	push	r31
	static uint8_t state = IDLE;
	static uint8_t val;
	uint8_t ch;

	if (UCSRA & (1<<FE)) { return; }	// framing error? -> return
 dd4:	5c 99       	sbic	0x0b, 4	; 11
 dd6:	9c c0       	rjmp	.+312    	; 0xf10 <__vector_7+0x160>
	ch = UDR;							// read received character
 dd8:	cc b1       	in	r28, 0x0c	; 12
	if (ch == 27) { state = RESET; }	// <ESC> resets the state machine
 dda:	cb 31       	cpi	r28, 0x1B	; 27
 ddc:	19 f4       	brne	.+6      	; 0xde4 <__vector_7+0x34>
 dde:	82 e0       	ldi	r24, 0x02	; 2
 de0:	80 93 67 00 	sts	0x0067, r24
	if (state >= EE_NORMAL) {
 de4:	80 91 67 00 	lds	r24, 0x0067
 de8:	85 30       	cpi	r24, 0x05	; 5
 dea:	18 f0       	brcs	.+6      	; 0xdf2 <__vector_7+0x42>
//	if (state >= IDLE) {
		dmClearDisplay();
 dec:	0e de       	rcall	.-996    	; 0xa0a <dmClearDisplay>
		dmPrintChar(ch);
 dee:	8c 2f       	mov	r24, r28
 df0:	41 de       	rcall	.-894    	; 0xa74 <dmPrintChar>
	}	

	switch (state) {
 df2:	e0 91 67 00 	lds	r30, 0x0067
 df6:	f0 e0       	ldi	r31, 0x00	; 0
 df8:	e8 30       	cpi	r30, 0x08	; 8
 dfa:	f1 05       	cpc	r31, r1
 dfc:	08 f0       	brcs	.+2      	; 0xe00 <__vector_7+0x50>
 dfe:	88 c0       	rjmp	.+272    	; 0xf10 <__vector_7+0x160>
 e00:	eb 5e       	subi	r30, 0xEB	; 235
 e02:	ff 4f       	sbci	r31, 0xFF	; 255
 e04:	09 94       	ijmp
		case IDLE:
			if (ch == AUTH1_CHAR)	{ state = AUTH; }
 e06:	c8 34       	cpi	r28, 0x48	; 72
 e08:	09 f0       	breq	.+2      	; 0xe0c <__vector_7+0x5c>
 e0a:	82 c0       	rjmp	.+260    	; 0xf10 <__vector_7+0x160>
 e0c:	81 e0       	ldi	r24, 0x01	; 1
 e0e:	76 c0       	rjmp	.+236    	; 0xefc <__vector_7+0x14c>
			else					{ state = IDLE; }
			break;
		case AUTH:
			if (ch == EE_AUTH2_CHAR)	{ state = EE_NORMAL; }
 e10:	cc 34       	cpi	r28, 0x4C	; 76
 e12:	09 f4       	brne	.+2      	; 0xe16 <__vector_7+0x66>
 e14:	72 c0       	rjmp	.+228    	; 0xefa <__vector_7+0x14a>
			else if (ch == DISP_AUTH2_CHAR)	{ state = DISP_SET_MODE; }
 e16:	c4 34       	cpi	r28, 0x44	; 68
 e18:	79 f4       	brne	.+30     	; 0xe38 <__vector_7+0x88>
 e1a:	83 e0       	ldi	r24, 0x03	; 3
 e1c:	6f c0       	rjmp	.+222    	; 0xefc <__vector_7+0x14c>
			else					{ state = IDLE; }
			break;
		case RESET:
			msg_ptr = (uint8_t*) messages;
 e1e:	80 e0       	ldi	r24, 0x00	; 0
 e20:	90 e0       	ldi	r25, 0x00	; 0
 e22:	90 93 38 01 	sts	0x0138, r25
 e26:	80 93 37 01 	sts	0x0137, r24
			ee_write_ptr = (uint8_t*) messages;
 e2a:	90 93 61 00 	sts	0x0061, r25
 e2e:	80 93 60 00 	sts	0x0060, r24
			dmClearDisplay();
 e32:	eb dd       	rcall	.-1066   	; 0xa0a <dmClearDisplay>
			dmPrintChar(129);						// show logo
 e34:	81 e8       	ldi	r24, 0x81	; 129
 e36:	1e de       	rcall	.-964    	; 0xa74 <dmPrintChar>
			state = IDLE;
 e38:	10 92 67 00 	sts	0x0067, r1
			break;
 e3c:	69 c0       	rjmp	.+210    	; 0xf10 <__vector_7+0x160>
		case DISP_SET_MODE:
			dmClearDisplay();
 e3e:	e5 dd       	rcall	.-1078   	; 0xa0a <dmClearDisplay>
			SetMode(ch);
 e40:	8c 2f       	mov	r24, r28
 e42:	7d de       	rcall	.-774    	; 0xb3e <SetMode>
			state = DISP_CHAR;
 e44:	84 e0       	ldi	r24, 0x04	; 4
 e46:	5a c0       	rjmp	.+180    	; 0xefc <__vector_7+0x14c>
			break;
		case DISP_CHAR:
			if ((ch == 13) || (ch == 10)) {	dmClearDisplay(); }		// chr(13) = <CR>, chr(10) = <LF>
 e48:	cd 30       	cpi	r28, 0x0D	; 13
 e4a:	11 f0       	breq	.+4      	; 0xe50 <__vector_7+0xa0>
 e4c:	ca 30       	cpi	r28, 0x0A	; 10
 e4e:	11 f4       	brne	.+4      	; 0xe54 <__vector_7+0xa4>
 e50:	dc dd       	rcall	.-1096   	; 0xa0a <dmClearDisplay>
 e52:	5e c0       	rjmp	.+188    	; 0xf10 <__vector_7+0x160>
			else { dmPrintChar(ch); dmPrintByte(0); }
 e54:	8c 2f       	mov	r24, r28
 e56:	0e de       	rcall	.-996    	; 0xa74 <dmPrintChar>
 e58:	80 e0       	ldi	r24, 0x00	; 0
 e5a:	ff dd       	rcall	.-1026   	; 0xa5a <dmPrintByte>
 e5c:	59 c0       	rjmp	.+178    	; 0xf10 <__vector_7+0x160>
			break;
		case EE_NORMAL:
			if (ch == '^') { state = EE_SPECIAL_CHAR; }
 e5e:	ce 35       	cpi	r28, 0x5E	; 94
 e60:	11 f4       	brne	.+4      	; 0xe66 <__vector_7+0xb6>
 e62:	86 e0       	ldi	r24, 0x06	; 6
 e64:	4b c0       	rjmp	.+150    	; 0xefc <__vector_7+0x14c>
			else if (ch == '$') { val = 0;  state = EE_HEX_CODE; }
 e66:	c4 32       	cpi	r28, 0x24	; 36
 e68:	21 f4       	brne	.+8      	; 0xe72 <__vector_7+0xc2>
 e6a:	10 92 68 00 	sts	0x0068, r1
 e6e:	87 e0       	ldi	r24, 0x07	; 7
 e70:	45 c0       	rjmp	.+138    	; 0xefc <__vector_7+0x14c>
			else if ((ch == 13) || (ch == 10)) {	// chr(13) = <CR>, chr(10) = <LF>
 e72:	cd 30       	cpi	r28, 0x0D	; 13
 e74:	11 f0       	breq	.+4      	; 0xe7a <__vector_7+0xca>
 e76:	ca 30       	cpi	r28, 0x0A	; 10
 e78:	69 f4       	brne	.+26     	; 0xe94 <__vector_7+0xe4>
				eeprom_write_byte(ee_write_ptr++, 0);
 e7a:	80 91 60 00 	lds	r24, 0x0060
 e7e:	90 91 61 00 	lds	r25, 0x0061
 e82:	9c 01       	movw	r18, r24
 e84:	2f 5f       	subi	r18, 0xFF	; 255
 e86:	3f 4f       	sbci	r19, 0xFF	; 255
 e88:	30 93 61 00 	sts	0x0061, r19
 e8c:	20 93 60 00 	sts	0x0060, r18
 e90:	60 e0       	ldi	r22, 0x00	; 0
 e92:	0e c0       	rjmp	.+28     	; 0xeb0 <__vector_7+0x100>
			}
			else if (ch >= ' ') {					// ignore non-printing characters
 e94:	c0 32       	cpi	r28, 0x20	; 32
 e96:	e0 f1       	brcs	.+120    	; 0xf10 <__vector_7+0x160>
				eeprom_write_byte(ee_write_ptr++, ch);
 e98:	20 91 60 00 	lds	r18, 0x0060
 e9c:	30 91 61 00 	lds	r19, 0x0061
 ea0:	c9 01       	movw	r24, r18
 ea2:	01 96       	adiw	r24, 0x01	; 1
 ea4:	90 93 61 00 	sts	0x0061, r25
 ea8:	80 93 60 00 	sts	0x0060, r24
 eac:	c9 01       	movw	r24, r18
 eae:	6c 2f       	mov	r22, r28
 eb0:	75 d0       	rcall	.+234    	; 0xf9c <__eewr_byte_tn4313>
 eb2:	2e c0       	rjmp	.+92     	; 0xf10 <__vector_7+0x160>
			}
			break;
		case EE_SPECIAL_CHAR:
			eeprom_write_byte(ee_write_ptr++, ch+63);
 eb4:	20 91 60 00 	lds	r18, 0x0060
 eb8:	30 91 61 00 	lds	r19, 0x0061
 ebc:	c9 01       	movw	r24, r18
 ebe:	01 96       	adiw	r24, 0x01	; 1
 ec0:	90 93 61 00 	sts	0x0061, r25
 ec4:	80 93 60 00 	sts	0x0060, r24
 ec8:	6c 2f       	mov	r22, r28
 eca:	61 5c       	subi	r22, 0xC1	; 193
 ecc:	c9 01       	movw	r24, r18
 ece:	14 c0       	rjmp	.+40     	; 0xef8 <__vector_7+0x148>
			state = EE_NORMAL;
			break;
		case EE_HEX_CODE:
			ch -= '0';
 ed0:	9c 2f       	mov	r25, r28
 ed2:	90 53       	subi	r25, 0x30	; 48
			if (ch >= 17) { ch -= 7; }
 ed4:	91 31       	cpi	r25, 0x11	; 17
 ed6:	08 f0       	brcs	.+2      	; 0xeda <__vector_7+0x12a>
 ed8:	97 50       	subi	r25, 0x07	; 7
			if (ch > 15) {							// any character below '0' or above 'F' terminates hex input
 eda:	90 31       	cpi	r25, 0x10	; 16
 edc:	90 f0       	brcs	.+36     	; 0xf02 <__vector_7+0x152>
				eeprom_write_byte(ee_write_ptr++, val);
 ede:	80 91 60 00 	lds	r24, 0x0060
 ee2:	90 91 61 00 	lds	r25, 0x0061
 ee6:	9c 01       	movw	r18, r24
 ee8:	2f 5f       	subi	r18, 0xFF	; 255
 eea:	3f 4f       	sbci	r19, 0xFF	; 255
 eec:	30 93 61 00 	sts	0x0061, r19
 ef0:	20 93 60 00 	sts	0x0060, r18
 ef4:	60 91 68 00 	lds	r22, 0x0068
 ef8:	51 d0       	rcall	.+162    	; 0xf9c <__eewr_byte_tn4313>
				state = EE_NORMAL;
 efa:	85 e0       	ldi	r24, 0x05	; 5
 efc:	80 93 67 00 	sts	0x0067, r24
 f00:	07 c0       	rjmp	.+14     	; 0xf10 <__vector_7+0x160>
			}
			else { val <<= 4;  val += ch; }
 f02:	80 91 68 00 	lds	r24, 0x0068
 f06:	82 95       	swap	r24
 f08:	80 7f       	andi	r24, 0xF0	; 240
 f0a:	89 0f       	add	r24, r25
 f0c:	80 93 68 00 	sts	0x0068, r24
			break;
	}
}
 f10:	ff 91       	pop	r31
 f12:	ef 91       	pop	r30
 f14:	cf 91       	pop	r28
 f16:	bf 91       	pop	r27
 f18:	af 91       	pop	r26
 f1a:	9f 91       	pop	r25
 f1c:	8f 91       	pop	r24
 f1e:	7f 91       	pop	r23
 f20:	6f 91       	pop	r22
 f22:	5f 91       	pop	r21
 f24:	4f 91       	pop	r20
 f26:	3f 91       	pop	r19
 f28:	2f 91       	pop	r18
 f2a:	0f 90       	pop	r0
 f2c:	0f be       	out	0x3f, r0	; 63
 f2e:	0f 90       	pop	r0
 f30:	1f 90       	pop	r1
 f32:	18 95       	reti

00000f34 <main>:
 * main *
 ********/

int main(void)
{
	InitHardware();
 f34:	e3 dd       	rcall	.-1082   	; 0xafc <InitHardware>
	dmInit();
 f36:	78 dd       	rcall	.-1296   	; 0xa28 <dmInit>
	sei();									// enable interrupts
 f38:	78 94       	sei

	GoToSleep();
 f3a:	88 de       	rcall	.-752    	; 0xc4c <GoToSleep>
	button |= PB_ACK;
 f3c:	80 91 62 00 	lds	r24, 0x0062
 f40:	80 68       	ori	r24, 0x80	; 128
 f42:	80 93 62 00 	sts	0x0062, r24

	while(1)
	{
		if (button == PB_RELEASE) {			// short button press
 f46:	80 91 62 00 	lds	r24, 0x0062
 f4a:	88 23       	and	r24, r24
 f4c:	71 f4       	brne	.+28     	; 0xf6a <main+0x36>
			msg_ptr = DisplayMessage(msg_ptr);
 f4e:	80 91 37 01 	lds	r24, 0x0137
 f52:	90 91 38 01 	lds	r25, 0x0138
 f56:	11 de       	rcall	.-990    	; 0xb7a <DisplayMessage>
 f58:	90 93 38 01 	sts	0x0138, r25
 f5c:	80 93 37 01 	sts	0x0137, r24
			button |= PB_ACK;
 f60:	80 91 62 00 	lds	r24, 0x0062
 f64:	80 68       	ori	r24, 0x80	; 128
 f66:	80 93 62 00 	sts	0x0062, r24
		}
		
		if (button == PB_LONGPRESS) {		// button pressed for some seconds
 f6a:	80 91 62 00 	lds	r24, 0x0062
 f6e:	83 30       	cpi	r24, 0x03	; 3
 f70:	51 f7       	brne	.-44     	; 0xf46 <main+0x12>
			dmClearDisplay();
 f72:	4b dd       	rcall	.-1386   	; 0xa0a <dmClearDisplay>
			dmPrintChar(130);				// sad smiley
 f74:	82 e8       	ldi	r24, 0x82	; 130
 f76:	7e dd       	rcall	.-1284   	; 0xa74 <dmPrintChar>
 f78:	8f e7       	ldi	r24, 0x7F	; 127
 f7a:	9a e1       	ldi	r25, 0x1A	; 26
 f7c:	a6 e0       	ldi	r26, 0x06	; 6
 f7e:	81 50       	subi	r24, 0x01	; 1
 f80:	90 40       	sbci	r25, 0x00	; 0
 f82:	a0 40       	sbci	r26, 0x00	; 0
 f84:	e1 f7       	brne	.-8      	; 0xf7e <main+0x4a>
 f86:	00 c0       	rjmp	.+0      	; 0xf88 <main+0x54>
 f88:	00 00       	nop
 f8a:	d7 cf       	rjmp	.-82     	; 0xf3a <main+0x6>

00000f8c <__eerd_byte_tn4313>:
 f8c:	e1 99       	sbic	0x1c, 1	; 28
 f8e:	fe cf       	rjmp	.-4      	; 0xf8c <__eerd_byte_tn4313>
 f90:	1f ba       	out	0x1f, r1	; 31
 f92:	8e bb       	out	0x1e, r24	; 30
 f94:	e0 9a       	sbi	0x1c, 0	; 28
 f96:	99 27       	eor	r25, r25
 f98:	8d b3       	in	r24, 0x1d	; 29
 f9a:	08 95       	ret

00000f9c <__eewr_byte_tn4313>:
 f9c:	26 2f       	mov	r18, r22

00000f9e <__eewr_r18_tn4313>:
 f9e:	e1 99       	sbic	0x1c, 1	; 28
 fa0:	fe cf       	rjmp	.-4      	; 0xf9e <__eewr_r18_tn4313>
 fa2:	1c ba       	out	0x1c, r1	; 28
 fa4:	1f ba       	out	0x1f, r1	; 31
 fa6:	8e bb       	out	0x1e, r24	; 30
 fa8:	2d bb       	out	0x1d, r18	; 29
 faa:	0f b6       	in	r0, 0x3f	; 63
 fac:	f8 94       	cli
 fae:	e2 9a       	sbi	0x1c, 2	; 28
 fb0:	e1 9a       	sbi	0x1c, 1	; 28
 fb2:	0f be       	out	0x3f, r0	; 63
 fb4:	01 96       	adiw	r24, 0x01	; 1
 fb6:	08 95       	ret

00000fb8 <_exit>:
 fb8:	f8 94       	cli

00000fba <__stop_program>:
 fba:	ff cf       	rjmp	.-2      	; 0xfba <__stop_program>
